
C:\Users\Administrator\Documents\Atmel Studio\6.2\GccApplication5\GccApplication5\Debug\GccApplication5.o:     file format elf32-littlearm


Disassembly of section .text.startup.main:

00000000 <main>:
       0:	e92d 4ff0 	stmdb	sp!, {r4, r5, r6, r7, r8, r9, sl, fp, lr}
       4:	4b6f      	ldr	r3, [pc, #444]	; (1c4 <main+0x1c4>)
       6:	4f70      	ldr	r7, [pc, #448]	; (1c8 <main+0x1c8>)
       8:	4c70      	ldr	r4, [pc, #448]	; (1cc <main+0x1cc>)
       a:	4d71      	ldr	r5, [pc, #452]	; (1d0 <main+0x1d0>)
       c:	f8df 91e8 	ldr.w	r9, [pc, #488]	; 1f8 <main+0x1f8>
      10:	f8df b1e8 	ldr.w	fp, [pc, #488]	; 1fc <main+0x1fc>
      14:	f8df a1e8 	ldr.w	sl, [pc, #488]	; 200 <main+0x200>
      18:	4e6e      	ldr	r6, [pc, #440]	; (1d4 <main+0x1d4>)
      1a:	b087      	sub	sp, #28
      1c:	4798      	blx	r3
      1e:	f04f 7880 	mov.w	r8, #16777216	; 0x1000000
      22:	f8df c1e0 	ldr.w	ip, [pc, #480]	; 204 <main+0x204>
      26:	4b6c      	ldr	r3, [pc, #432]	; (1d8 <main+0x1d8>)
      28:	4a6c      	ldr	r2, [pc, #432]	; (1dc <main+0x1dc>)
      2a:	496d      	ldr	r1, [pc, #436]	; (1e0 <main+0x1e0>)
      2c:	f44f 5080 	mov.w	r0, #4096	; 0x1000
      30:	6138      	str	r0, [r7, #16]
      32:	f44f 7e00 	mov.w	lr, #512	; 0x200
      36:	f8c5 8000 	str.w	r8, [r5]
      3a:	f8c4 9000 	str.w	r9, [r4]
      3e:	f44f 6580 	mov.w	r5, #1024	; 0x400
      42:	24ff      	movs	r4, #255	; 0xff
      44:	f8c9 8010 	str.w	r8, [r9, #16]
      48:	f8c7 e010 	str.w	lr, [r7, #16]
      4c:	f8cc a010 	str.w	sl, [ip, #16]
      50:	f04f 0e02 	mov.w	lr, #2
      54:	613d      	str	r5, [r7, #16]
      56:	611c      	str	r4, [r3, #16]
      58:	f04f 35ff 	mov.w	r5, #4294967295
      5c:	f44f 1400 	mov.w	r4, #2097152	; 0x200000
      60:	613c      	str	r4, [r7, #16]
      62:	f44f 4080 	mov.w	r0, #16384	; 0x4000
      66:	f8cb 2000 	str.w	r2, [fp]
      6a:	f04f 0a10 	mov.w	sl, #16
      6e:	f8c2 e000 	str.w	lr, [r2]
      72:	f241 244f 	movw	r4, #4687	; 0x124f
      76:	6295      	str	r5, [r2, #40]	; 0x28
      78:	6a15      	ldr	r5, [r2, #32]
      7a:	6050      	str	r0, [r2, #4]
      7c:	f8c2 a024 	str.w	sl, [r2, #36]	; 0x24
      80:	61d4      	str	r4, [r2, #28]
      82:	2405      	movs	r4, #5
      84:	6014      	str	r4, [r2, #0]
      86:	f44f 62c0 	mov.w	r2, #1536	; 0x600
      8a:	f8cc 2004 	str.w	r2, [ip, #4]
      8e:	f8cc 2044 	str.w	r2, [ip, #68]	; 0x44
      92:	f8dc 4070 	ldr.w	r4, [ip, #112]	; 0x70
      96:	f8dc 2070 	ldr.w	r2, [ip, #112]	; 0x70
      9a:	f8df b16c 	ldr.w	fp, [pc, #364]	; 208 <main+0x208>
      9e:	f8df 8148 	ldr.w	r8, [pc, #328]	; 1e8 <main+0x1e8>
      a2:	4022      	ands	r2, r4
      a4:	f422 62c0 	bic.w	r2, r2, #1536	; 0x600
      a8:	f8cc 2070 	str.w	r2, [ip, #112]	; 0x70
      ac:	f8dc 4074 	ldr.w	r4, [ip, #116]	; 0x74
      b0:	f8dc 2074 	ldr.w	r2, [ip, #116]	; 0x74
      b4:	4022      	ands	r2, r4
      b6:	f422 62c0 	bic.w	r2, r2, #1536	; 0x600
      ba:	f8cc 2074 	str.w	r2, [ip, #116]	; 0x74
      be:	2480      	movs	r4, #128	; 0x80
      c0:	22ac      	movs	r2, #172	; 0xac
      c2:	613c      	str	r4, [r7, #16]
      c4:	f44f 6500 	mov.w	r5, #2048	; 0x800
      c8:	f8cb 1000 	str.w	r1, [fp]
      cc:	600a      	str	r2, [r1, #0]
      ce:	f240 2202 	movw	r2, #514	; 0x202
      d2:	f8c1 e020 	str.w	lr, [r1, #32]
      d6:	604d      	str	r5, [r1, #4]
      d8:	f8c1 2120 	str.w	r2, [r1, #288]	; 0x120
      dc:	2250      	movs	r2, #80	; 0x50
      de:	600a      	str	r2, [r1, #0]
      e0:	4d40      	ldr	r5, [pc, #256]	; (1e4 <main+0x1e4>)
      e2:	6035      	str	r5, [r6, #0]
      e4:	22c8      	movs	r2, #200	; 0xc8
      e6:	6072      	str	r2, [r6, #4]
      e8:	f44f 5580 	mov.w	r5, #4096	; 0x1000
      ec:	f240 1201 	movw	r2, #257	; 0x101
      f0:	6232      	str	r2, [r6, #32]
      f2:	608d      	str	r5, [r1, #8]
      f4:	f8c3 e004 	str.w	lr, [r3, #4]
      f8:	f8c3 e044 	str.w	lr, [r3, #68]	; 0x44
      fc:	6f19      	ldr	r1, [r3, #112]	; 0x70
      fe:	6f1a      	ldr	r2, [r3, #112]	; 0x70
     100:	4d39      	ldr	r5, [pc, #228]	; (1e8 <main+0x1e8>)
     102:	f8df b108 	ldr.w	fp, [pc, #264]	; 20c <main+0x20c>
     106:	400a      	ands	r2, r1
     108:	f422 62c0 	bic.w	r2, r2, #1536	; 0x600
     10c:	671a      	str	r2, [r3, #112]	; 0x70
     10e:	6f59      	ldr	r1, [r3, #116]	; 0x74
     110:	6f5a      	ldr	r2, [r3, #116]	; 0x74
     112:	400a      	ands	r2, r1
     114:	f422 62c0 	bic.w	r2, r2, #1536	; 0x600
     118:	675a      	str	r2, [r3, #116]	; 0x74
     11a:	4a33      	ldr	r2, [pc, #204]	; (1e8 <main+0x1e8>)
     11c:	6138      	str	r0, [r7, #16]
     11e:	2100      	movs	r1, #0
     120:	2688      	movs	r6, #136	; 0x88
     122:	2724      	movs	r7, #36	; 0x24
     124:	f8c2 b0e4 	str.w	fp, [r2, #228]	; 0xe4
     128:	6069      	str	r1, [r5, #4]
     12a:	f44f 7280 	mov.w	r2, #256	; 0x100
     12e:	6269      	str	r1, [r5, #36]	; 0x24
     130:	62a9      	str	r1, [r5, #40]	; 0x28
     132:	602e      	str	r6, [r5, #0]
     134:	602f      	str	r7, [r5, #0]
     136:	f44f 2600 	mov.w	r6, #524288	; 0x80000
     13a:	f44f 3700 	mov.w	r7, #131072	; 0x20000
     13e:	602a      	str	r2, [r5, #0]
     140:	602e      	str	r6, [r5, #0]
     142:	602f      	str	r7, [r5, #0]
     144:	f8c5 e020 	str.w	lr, [r5, #32]
     148:	f8d5 e004 	ldr.w	lr, [r5, #4]
     14c:	4f27      	ldr	r7, [pc, #156]	; (1ec <main+0x1ec>)
     14e:	4e28      	ldr	r6, [pc, #160]	; (1f0 <main+0x1f0>)
     150:	f44e 6e0c 	orr.w	lr, lr, #2240	; 0x8c0
     154:	f8c5 e004 	str.w	lr, [r5, #4]
     158:	f04f 35ff 	mov.w	r5, #4294967295
     15c:	f04f 0e40 	mov.w	lr, #64	; 0x40
     160:	f8c8 500c 	str.w	r5, [r8, #12]
     164:	f8c8 e000 	str.w	lr, [r8]
     168:	f240 1501 	movw	r5, #257	; 0x101
     16c:	f04f 0e14 	mov.w	lr, #20
     170:	f8c8 a000 	str.w	sl, [r8]
     174:	623d      	str	r5, [r7, #32]
     176:	60be      	str	r6, [r7, #8]
     178:	f8c7 e00c 	str.w	lr, [r7, #12]
     17c:	9104      	str	r1, [sp, #16]
     17e:	f44f 6700 	mov.w	r7, #2048	; 0x800
     182:	f102 22e0 	add.w	r2, r2, #3758153728	; 0xe000e000
     186:	f8c8 7008 	str.w	r7, [r8, #8]
     18a:	9f04      	ldr	r7, [sp, #16]
     18c:	9705      	str	r7, [sp, #20]
     18e:	46e3      	mov	fp, ip
     190:	f44f 1700 	mov.w	r7, #2097152	; 0x200000
     194:	f04f 0c20 	mov.w	ip, #32
     198:	f8c2 7080 	str.w	r7, [r2, #128]	; 0x80
     19c:	4d15      	ldr	r5, [pc, #84]	; (1f4 <main+0x1f4>)
     19e:	f8c2 4080 	str.w	r4, [r2, #128]	; 0x80
     1a2:	f8c2 0080 	str.w	r0, [r2, #128]	; 0x80
     1a6:	f8c2 7180 	str.w	r7, [r2, #384]	; 0x180
     1aa:	f882 c315 	strb.w	ip, [r2, #789]	; 0x315
     1ae:	f8c2 4180 	str.w	r4, [r2, #384]	; 0x180
     1b2:	f882 a307 	strb.w	sl, [r2, #775]	; 0x307
     1b6:	f8c2 0180 	str.w	r0, [r2, #384]	; 0x180
     1ba:	f882 130e 	strb.w	r1, [r2, #782]	; 0x30e
     1be:	f003 bd1e 	b.w	3bfe <main+0x3bfe>
     1c2:	bf00      	nop
     1c4:	00000000 	.word	0x00000000
     1c8:	400e0400 	.word	0x400e0400
	...
     1d4:	400e0700 	.word	0x400e0700
     1d8:	400e1000 	.word	0x400e1000
     1dc:	40090000 	.word	0x40090000
     1e0:	400e0600 	.word	0x400e0600
     1e4:	00000000 	.word	0x00000000
     1e8:	400a0000 	.word	0x400a0000
     1ec:	400a0100 	.word	0x400a0100
     1f0:	00000000 	.word	0x00000000
     1f4:	03ff0000 	.word	0x03ff0000
     1f8:	400e1400 	.word	0x400e1400
     1fc:	00000000 	.word	0x00000000
     200:	03ff0600 	.word	0x03ff0600
     204:	400e0e00 	.word	0x400e0e00
     208:	00000000 	.word	0x00000000
     20c:	55534100 	.word	0x55534100
     210:	49df      	ldr	r1, [pc, #892]	; (590 <main+0x590>)
     212:	f04f 7080 	mov.w	r0, #16777216	; 0x1000000
     216:	6308      	str	r0, [r1, #48]	; 0x30
     218:	9f05      	ldr	r7, [sp, #20]
     21a:	4ade      	ldr	r2, [pc, #888]	; (594 <main+0x594>)
     21c:	1c79      	adds	r1, r7, #1
     21e:	b209      	sxth	r1, r1
     220:	400a      	ands	r2, r1
     222:	2a00      	cmp	r2, #0
     224:	f2c3 84f9 	blt.w	3c1a <main+0x3c1a>
     228:	b292      	uxth	r2, r2
     22a:	9205      	str	r2, [sp, #20]
     22c:	b212      	sxth	r2, r2
     22e:	ebc2 1202 	rsb	r2, r2, r2, lsl #4
     232:	f8df a364 	ldr.w	sl, [pc, #868]	; 598 <main+0x598>
     236:	4fd8      	ldr	r7, [pc, #864]	; (598 <main+0x598>)
     238:	0152      	lsls	r2, r2, #5
     23a:	4492      	add	sl, r2
     23c:	200f      	movs	r0, #15
     23e:	6358      	str	r0, [r3, #52]	; 0x34
     240:	f9ba 0004 	ldrsh.w	r0, [sl, #4]
     244:	f9ba 1002 	ldrsh.w	r1, [sl, #2]
     248:	5eba      	ldrsh	r2, [r7, r2]
     24a:	f9ba 8008 	ldrsh.w	r8, [sl, #8]
     24e:	f9ba c00a 	ldrsh.w	ip, [sl, #10]
     252:	f9ba e006 	ldrsh.w	lr, [sl, #6]
     256:	2401      	movs	r4, #1
     258:	4430      	add	r0, r6
     25a:	631c      	str	r4, [r3, #48]	; 0x30
     25c:	4431      	add	r1, r6
     25e:	7d04      	ldrb	r4, [r0, #20]
     260:	f8cd 800c 	str.w	r8, [sp, #12]
     264:	4432      	add	r2, r6
     266:	f891 8014 	ldrb.w	r8, [r1, #20]
     26a:	7d12      	ldrb	r2, [r2, #20]
     26c:	3c80      	subs	r4, #128	; 0x80
     26e:	b2a4      	uxth	r4, r4
     270:	f1a8 0880 	sub.w	r8, r8, #128	; 0x80
     274:	b221      	sxth	r1, r4
     276:	fa1f f888 	uxth.w	r8, r8
     27a:	fa0f f988 	sxth.w	r9, r8
     27e:	f64f 709c 	movw	r0, #65436	; 0xff9c
     282:	eb01 0741 	add.w	r7, r1, r1, lsl #1
     286:	3a10      	subs	r2, #16
     288:	b292      	uxth	r2, r2
     28a:	fb18 f800 	smulbb	r8, r8, r0
     28e:	eb07 1707 	add.w	r7, r7, r7, lsl #4
     292:	f44f 7095 	mov.w	r0, #298	; 0x12a
     296:	eb09 19c9 	add.w	r9, r9, r9, lsl #7
     29a:	fb12 8800 	smlabb	r8, r2, r0, r8
     29e:	eb01 01c7 	add.w	r1, r1, r7, lsl #3
     2a2:	ea4f 0989 	mov.w	r9, r9, lsl #2
     2a6:	f64f 7730 	movw	r7, #65328	; 0xff30
     2aa:	fb12 9900 	smlabb	r9, r2, r0, r9
     2ae:	fb14 8407 	smlabb	r4, r4, r7, r8
     2b2:	fb12 1800 	smlabb	r8, r2, r0, r1
     2b6:	f209 174d 	addw	r7, r9, #333	; 0x14d
     2ba:	f204 144d 	addw	r4, r4, #333	; 0x14d
     2be:	f208 184d 	addw	r8, r8, #333	; 0x14d
     2c2:	2210      	movs	r2, #16
     2c4:	21f0      	movs	r1, #240	; 0xf0
     2c6:	043f      	lsls	r7, r7, #16
     2c8:	0424      	lsls	r4, r4, #16
     2ca:	ea4f 4808 	mov.w	r8, r8, lsl #16
     2ce:	6359      	str	r1, [r3, #52]	; 0x34
     2d0:	44b4      	add	ip, r6
     2d2:	631a      	str	r2, [r3, #48]	; 0x30
     2d4:	f8cb 5034 	str.w	r5, [fp, #52]	; 0x34
     2d8:	f8cb 8030 	str.w	r8, [fp, #48]	; 0x30
     2dc:	6359      	str	r1, [r3, #52]	; 0x34
     2de:	631a      	str	r2, [r3, #48]	; 0x30
     2e0:	f8cb 5034 	str.w	r5, [fp, #52]	; 0x34
     2e4:	f8cb 4030 	str.w	r4, [fp, #48]	; 0x30
     2e8:	6359      	str	r1, [r3, #52]	; 0x34
     2ea:	240f      	movs	r4, #15
     2ec:	631a      	str	r2, [r3, #48]	; 0x30
     2ee:	f8cb 5034 	str.w	r5, [fp, #52]	; 0x34
     2f2:	f8cb 7030 	str.w	r7, [fp, #48]	; 0x30
     2f6:	2701      	movs	r7, #1
     2f8:	f8cb 5034 	str.w	r5, [fp, #52]	; 0x34
     2fc:	f8dd 800c 	ldr.w	r8, [sp, #12]
     300:	635c      	str	r4, [r3, #52]	; 0x34
     302:	631f      	str	r7, [r3, #48]	; 0x30
     304:	f89c c014 	ldrb.w	ip, [ip, #20]
     308:	44b0      	add	r8, r6
     30a:	f1ac 0c80 	sub.w	ip, ip, #128	; 0x80
     30e:	f898 8014 	ldrb.w	r8, [r8, #20]
     312:	44b6      	add	lr, r6
     314:	fa1f fc8c 	uxth.w	ip, ip
     318:	fa0f f78c 	sxth.w	r7, ip
     31c:	f89e 4014 	ldrb.w	r4, [lr, #20]
     320:	6359      	str	r1, [r3, #52]	; 0x34
     322:	eb07 0e47 	add.w	lr, r7, r7, lsl #1
     326:	f1a8 0880 	sub.w	r8, r8, #128	; 0x80
     32a:	eb0e 1e0e 	add.w	lr, lr, lr, lsl #4
     32e:	fa1f f888 	uxth.w	r8, r8
     332:	eb07 07ce 	add.w	r7, r7, lr, lsl #3
     336:	f64f 799c 	movw	r9, #65436	; 0xff9c
     33a:	fa0f fe88 	sxth.w	lr, r8
     33e:	3c10      	subs	r4, #16
     340:	b2a4      	uxth	r4, r4
     342:	fb18 f809 	smulbb	r8, r8, r9
     346:	eb0e 1ece 	add.w	lr, lr, lr, lsl #7
     34a:	fb14 8800 	smlabb	r8, r4, r0, r8
     34e:	fb14 7700 	smlabb	r7, r4, r0, r7
     352:	f64f 7930 	movw	r9, #65328	; 0xff30
     356:	ea4f 0e8e 	mov.w	lr, lr, lsl #2
     35a:	fb14 ee00 	smlabb	lr, r4, r0, lr
     35e:	fb1c 8c09 	smlabb	ip, ip, r9, r8
     362:	f207 174d 	addw	r7, r7, #333	; 0x14d
     366:	631a      	str	r2, [r3, #48]	; 0x30
     368:	4097      	lsls	r7, r2
     36a:	f9ba 9010 	ldrsh.w	r9, [sl, #16]
     36e:	f9ba 400c 	ldrsh.w	r4, [sl, #12]
     372:	f8cb 5034 	str.w	r5, [fp, #52]	; 0x34
     376:	f20e 184d 	addw	r8, lr, #333	; 0x14d
     37a:	f20c 1c4d 	addw	ip, ip, #333	; 0x14d
     37e:	f8cb 7030 	str.w	r7, [fp, #48]	; 0x30
     382:	fa0c fc02 	lsl.w	ip, ip, r2
     386:	6359      	str	r1, [r3, #52]	; 0x34
     388:	fa08 f802 	lsl.w	r8, r8, r2
     38c:	631a      	str	r2, [r3, #48]	; 0x30
     38e:	f8cb 5034 	str.w	r5, [fp, #52]	; 0x34
     392:	9403      	str	r4, [sp, #12]
     394:	240f      	movs	r4, #15
     396:	f8cb c030 	str.w	ip, [fp, #48]	; 0x30
     39a:	eb06 0e09 	add.w	lr, r6, r9
     39e:	6359      	str	r1, [r3, #52]	; 0x34
     3a0:	631a      	str	r2, [r3, #48]	; 0x30
     3a2:	f8cb 5034 	str.w	r5, [fp, #52]	; 0x34
     3a6:	f8cb 8030 	str.w	r8, [fp, #48]	; 0x30
     3aa:	f8cb 5034 	str.w	r5, [fp, #52]	; 0x34
     3ae:	635c      	str	r4, [r3, #52]	; 0x34
     3b0:	2401      	movs	r4, #1
     3b2:	631c      	str	r4, [r3, #48]	; 0x30
     3b4:	f9ba 700e 	ldrsh.w	r7, [sl, #14]
     3b8:	f89e e014 	ldrb.w	lr, [lr, #20]
     3bc:	9c03      	ldr	r4, [sp, #12]
     3be:	4437      	add	r7, r6
     3c0:	4434      	add	r4, r6
     3c2:	f1ae 0e80 	sub.w	lr, lr, #128	; 0x80
     3c6:	f897 9014 	ldrb.w	r9, [r7, #20]
     3ca:	f9ba 7016 	ldrsh.w	r7, [sl, #22]
     3ce:	9701      	str	r7, [sp, #4]
     3d0:	fa1f fe8e 	uxth.w	lr, lr
     3d4:	7d24      	ldrb	r4, [r4, #20]
     3d6:	6359      	str	r1, [r3, #52]	; 0x34
     3d8:	fa0f f78e 	sxth.w	r7, lr
     3dc:	eb07 0c47 	add.w	ip, r7, r7, lsl #1
     3e0:	f1a9 0980 	sub.w	r9, r9, #128	; 0x80
     3e4:	fa1f f989 	uxth.w	r9, r9
     3e8:	3c10      	subs	r4, #16
     3ea:	f64f 789c 	movw	r8, #65436	; 0xff9c
     3ee:	eb0c 1c0c 	add.w	ip, ip, ip, lsl #4
     3f2:	b2a4      	uxth	r4, r4
     3f4:	eb07 0ccc 	add.w	ip, r7, ip, lsl #3
     3f8:	fb19 f808 	smulbb	r8, r9, r8
     3fc:	f8cd c008 	str.w	ip, [sp, #8]
     400:	fb14 8800 	smlabb	r8, r4, r0, r8
     404:	f64f 7c30 	movw	ip, #65328	; 0xff30
     408:	fb1e 870c 	smlabb	r7, lr, ip, r8
     40c:	fa0f f989 	sxth.w	r9, r9
     410:	f8dd e008 	ldr.w	lr, [sp, #8]
     414:	f8dd 8004 	ldr.w	r8, [sp, #4]
     418:	631a      	str	r2, [r3, #48]	; 0x30
     41a:	eb09 19c9 	add.w	r9, r9, r9, lsl #7
     41e:	fb14 ec00 	smlabb	ip, r4, r0, lr
     422:	ea4f 0989 	mov.w	r9, r9, lsl #2
     426:	fb14 9900 	smlabb	r9, r4, r0, r9
     42a:	f20c 1c4d 	addw	ip, ip, #333	; 0x14d
     42e:	f207 144d 	addw	r4, r7, #333	; 0x14d
     432:	4094      	lsls	r4, r2
     434:	fa0c fc02 	lsl.w	ip, ip, r2
     438:	f209 194d 	addw	r9, r9, #333	; 0x14d
     43c:	f9ba 7014 	ldrsh.w	r7, [sl, #20]
     440:	f8cb 5034 	str.w	r5, [fp, #52]	; 0x34
     444:	fa09 f902 	lsl.w	r9, r9, r2
     448:	f8cb c030 	str.w	ip, [fp, #48]	; 0x30
     44c:	f9ba c012 	ldrsh.w	ip, [sl, #18]
     450:	6359      	str	r1, [r3, #52]	; 0x34
     452:	631a      	str	r2, [r3, #48]	; 0x30
     454:	f8cb 5034 	str.w	r5, [fp, #52]	; 0x34
     458:	f8cb 4030 	str.w	r4, [fp, #48]	; 0x30
     45c:	240f      	movs	r4, #15
     45e:	6359      	str	r1, [r3, #52]	; 0x34
     460:	44b0      	add	r8, r6
     462:	631a      	str	r2, [r3, #48]	; 0x30
     464:	f8cb 5034 	str.w	r5, [fp, #52]	; 0x34
     468:	f8cb 9030 	str.w	r9, [fp, #48]	; 0x30
     46c:	f8cb 5034 	str.w	r5, [fp, #52]	; 0x34
     470:	635c      	str	r4, [r3, #52]	; 0x34
     472:	2401      	movs	r4, #1
     474:	631c      	str	r4, [r3, #48]	; 0x30
     476:	f898 e014 	ldrb.w	lr, [r8, #20]
     47a:	4437      	add	r7, r6
     47c:	44b4      	add	ip, r6
     47e:	f897 9014 	ldrb.w	r9, [r7, #20]
     482:	f89c 4014 	ldrb.w	r4, [ip, #20]
     486:	f1ae 0e80 	sub.w	lr, lr, #128	; 0x80
     48a:	fa1f fe8e 	uxth.w	lr, lr
     48e:	fa0f f78e 	sxth.w	r7, lr
     492:	f1a9 0980 	sub.w	r9, r9, #128	; 0x80
     496:	fa1f f989 	uxth.w	r9, r9
     49a:	eb07 0c47 	add.w	ip, r7, r7, lsl #1
     49e:	f8cd e008 	str.w	lr, [sp, #8]
     4a2:	fa0f f889 	sxth.w	r8, r9
     4a6:	f64f 7e9c 	movw	lr, #65436	; 0xff9c
     4aa:	3c10      	subs	r4, #16
     4ac:	eb0c 1c0c 	add.w	ip, ip, ip, lsl #4
     4b0:	b2a4      	uxth	r4, r4
     4b2:	fb19 f90e 	smulbb	r9, r9, lr
     4b6:	eb07 0ccc 	add.w	ip, r7, ip, lsl #3
     4ba:	eb08 18c8 	add.w	r8, r8, r8, lsl #7
     4be:	9f02      	ldr	r7, [sp, #8]
     4c0:	6359      	str	r1, [r3, #52]	; 0x34
     4c2:	fb14 9900 	smlabb	r9, r4, r0, r9
     4c6:	f64f 7e30 	movw	lr, #65328	; 0xff30
     4ca:	ea4f 0888 	mov.w	r8, r8, lsl #2
     4ce:	fb17 990e 	smlabb	r9, r7, lr, r9
     4d2:	fb14 8800 	smlabb	r8, r4, r0, r8
     4d6:	fb14 cc00 	smlabb	ip, r4, r0, ip
     4da:	f9ba e01c 	ldrsh.w	lr, [sl, #28]
     4de:	f9ba 401a 	ldrsh.w	r4, [sl, #26]
     4e2:	9403      	str	r4, [sp, #12]
     4e4:	f209 194d 	addw	r9, r9, #333	; 0x14d
     4e8:	f208 184d 	addw	r8, r8, #333	; 0x14d
     4ec:	f20c 1c4d 	addw	ip, ip, #333	; 0x14d
     4f0:	fa09 f702 	lsl.w	r7, r9, r2
     4f4:	fa08 f402 	lsl.w	r4, r8, r2
     4f8:	fa0c fc02 	lsl.w	ip, ip, r2
     4fc:	44b6      	add	lr, r6
     4fe:	631a      	str	r2, [r3, #48]	; 0x30
     500:	f8dd 800c 	ldr.w	r8, [sp, #12]
     504:	f8cb 5034 	str.w	r5, [fp, #52]	; 0x34
     508:	f8cb c030 	str.w	ip, [fp, #48]	; 0x30
     50c:	6359      	str	r1, [r3, #52]	; 0x34
     50e:	631a      	str	r2, [r3, #48]	; 0x30
     510:	f8cb 5034 	str.w	r5, [fp, #52]	; 0x34
     514:	f8cb 7030 	str.w	r7, [fp, #48]	; 0x30
     518:	6359      	str	r1, [r3, #52]	; 0x34
     51a:	270f      	movs	r7, #15
     51c:	631a      	str	r2, [r3, #48]	; 0x30
     51e:	f8cb 5034 	str.w	r5, [fp, #52]	; 0x34
     522:	f8cb 4030 	str.w	r4, [fp, #48]	; 0x30
     526:	2401      	movs	r4, #1
     528:	f9ba c018 	ldrsh.w	ip, [sl, #24]
     52c:	f8cb 5034 	str.w	r5, [fp, #52]	; 0x34
     530:	635f      	str	r7, [r3, #52]	; 0x34
     532:	631c      	str	r4, [r3, #48]	; 0x30
     534:	f89e e014 	ldrb.w	lr, [lr, #20]
     538:	44b0      	add	r8, r6
     53a:	44b4      	add	ip, r6
     53c:	f1ae 0e80 	sub.w	lr, lr, #128	; 0x80
     540:	f898 9014 	ldrb.w	r9, [r8, #20]
     544:	f89c 4014 	ldrb.w	r4, [ip, #20]
     548:	fa1f fe8e 	uxth.w	lr, lr
     54c:	fa0f f78e 	sxth.w	r7, lr
     550:	eb07 0c47 	add.w	ip, r7, r7, lsl #1
     554:	f1a9 0980 	sub.w	r9, r9, #128	; 0x80
     558:	f8cd e008 	str.w	lr, [sp, #8]
     55c:	fa1f f989 	uxth.w	r9, r9
     560:	f64f 7e9c 	movw	lr, #65436	; 0xff9c
     564:	3c10      	subs	r4, #16
     566:	eb0c 1c0c 	add.w	ip, ip, ip, lsl #4
     56a:	b2a4      	uxth	r4, r4
     56c:	fa0f f889 	sxth.w	r8, r9
     570:	eb07 0ccc 	add.w	ip, r7, ip, lsl #3
     574:	fb19 f90e 	smulbb	r9, r9, lr
     578:	9f02      	ldr	r7, [sp, #8]
     57a:	6359      	str	r1, [r3, #52]	; 0x34
     57c:	fb14 9900 	smlabb	r9, r4, r0, r9
     580:	f64f 7e30 	movw	lr, #65328	; 0xff30
     584:	eb08 18c8 	add.w	r8, r8, r8, lsl #7
     588:	fb17 990e 	smlabb	r9, r7, lr, r9
     58c:	e006      	b.n	59c <main+0x59c>
     58e:	bf00      	nop
     590:	400e1400 	.word	0x400e1400
     594:	800001ff 	.word	0x800001ff
     598:	00000000 	.word	0x00000000
     59c:	fb14 cc00 	smlabb	ip, r4, r0, ip
     5a0:	ea4f 0888 	mov.w	r8, r8, lsl #2
     5a4:	fb14 8800 	smlabb	r8, r4, r0, r8
     5a8:	f209 194d 	addw	r9, r9, #333	; 0x14d
     5ac:	f20c 1c4d 	addw	ip, ip, #333	; 0x14d
     5b0:	fa09 f702 	lsl.w	r7, r9, r2
     5b4:	f208 184d 	addw	r8, r8, #333	; 0x14d
     5b8:	fa0c fc02 	lsl.w	ip, ip, r2
     5bc:	631a      	str	r2, [r3, #48]	; 0x30
     5be:	fa08 f402 	lsl.w	r4, r8, r2
     5c2:	f8cb 5034 	str.w	r5, [fp, #52]	; 0x34
     5c6:	f9ba e022 	ldrsh.w	lr, [sl, #34]	; 0x22
     5ca:	f8cb c030 	str.w	ip, [fp, #48]	; 0x30
     5ce:	6359      	str	r1, [r3, #52]	; 0x34
     5d0:	631a      	str	r2, [r3, #48]	; 0x30
     5d2:	f8cb 5034 	str.w	r5, [fp, #52]	; 0x34
     5d6:	f8cb 7030 	str.w	r7, [fp, #48]	; 0x30
     5da:	f9ba 7020 	ldrsh.w	r7, [sl, #32]
     5de:	6359      	str	r1, [r3, #52]	; 0x34
     5e0:	631a      	str	r2, [r3, #48]	; 0x30
     5e2:	f8cb 5034 	str.w	r5, [fp, #52]	; 0x34
     5e6:	f8cb 4030 	str.w	r4, [fp, #48]	; 0x30
     5ea:	240f      	movs	r4, #15
     5ec:	f8cb 5034 	str.w	r5, [fp, #52]	; 0x34
     5f0:	4437      	add	r7, r6
     5f2:	635c      	str	r4, [r3, #52]	; 0x34
     5f4:	44b6      	add	lr, r6
     5f6:	2401      	movs	r4, #1
     5f8:	631c      	str	r4, [r3, #48]	; 0x30
     5fa:	f897 9014 	ldrb.w	r9, [r7, #20]
     5fe:	f9ba 401e 	ldrsh.w	r4, [sl, #30]
     602:	f89e e014 	ldrb.w	lr, [lr, #20]
     606:	f9ba 8028 	ldrsh.w	r8, [sl, #40]	; 0x28
     60a:	f8cd 8004 	str.w	r8, [sp, #4]
     60e:	4434      	add	r4, r6
     610:	f1ae 0e80 	sub.w	lr, lr, #128	; 0x80
     614:	f1a9 0980 	sub.w	r9, r9, #128	; 0x80
     618:	fa1f fe8e 	uxth.w	lr, lr
     61c:	fa1f f989 	uxth.w	r9, r9
     620:	f64f 7c9c 	movw	ip, #65436	; 0xff9c
     624:	fa0f f78e 	sxth.w	r7, lr
     628:	7d24      	ldrb	r4, [r4, #20]
     62a:	6359      	str	r1, [r3, #52]	; 0x34
     62c:	fb19 fc0c 	smulbb	ip, r9, ip
     630:	f8cd c00c 	str.w	ip, [sp, #12]
     634:	eb07 0c47 	add.w	ip, r7, r7, lsl #1
     638:	f8dd 800c 	ldr.w	r8, [sp, #12]
     63c:	3c10      	subs	r4, #16
     63e:	eb0c 1c0c 	add.w	ip, ip, ip, lsl #4
     642:	b2a4      	uxth	r4, r4
     644:	eb07 0ccc 	add.w	ip, r7, ip, lsl #3
     648:	fb14 8800 	smlabb	r8, r4, r0, r8
     64c:	f8cd c008 	str.w	ip, [sp, #8]
     650:	fa0f f989 	sxth.w	r9, r9
     654:	f64f 7c30 	movw	ip, #65328	; 0xff30
     658:	fb1e 870c 	smlabb	r7, lr, ip, r8
     65c:	eb09 19c9 	add.w	r9, r9, r9, lsl #7
     660:	f8dd e008 	ldr.w	lr, [sp, #8]
     664:	f8dd 8004 	ldr.w	r8, [sp, #4]
     668:	631a      	str	r2, [r3, #48]	; 0x30
     66a:	ea4f 0989 	mov.w	r9, r9, lsl #2
     66e:	fb14 ec00 	smlabb	ip, r4, r0, lr
     672:	fb14 9900 	smlabb	r9, r4, r0, r9
     676:	f209 194d 	addw	r9, r9, #333	; 0x14d
     67a:	f207 144d 	addw	r4, r7, #333	; 0x14d
     67e:	f20c 1c4d 	addw	ip, ip, #333	; 0x14d
     682:	fa04 f702 	lsl.w	r7, r4, r2
     686:	fa0c fc02 	lsl.w	ip, ip, r2
     68a:	fa09 f402 	lsl.w	r4, r9, r2
     68e:	f8cb 5034 	str.w	r5, [fp, #52]	; 0x34
     692:	44b0      	add	r8, r6
     694:	f8cb c030 	str.w	ip, [fp, #48]	; 0x30
     698:	6359      	str	r1, [r3, #52]	; 0x34
     69a:	631a      	str	r2, [r3, #48]	; 0x30
     69c:	f8cb 5034 	str.w	r5, [fp, #52]	; 0x34
     6a0:	f8cb 7030 	str.w	r7, [fp, #48]	; 0x30
     6a4:	6359      	str	r1, [r3, #52]	; 0x34
     6a6:	2701      	movs	r7, #1
     6a8:	631a      	str	r2, [r3, #48]	; 0x30
     6aa:	f8cb 5034 	str.w	r5, [fp, #52]	; 0x34
     6ae:	f8cb 4030 	str.w	r4, [fp, #48]	; 0x30
     6b2:	240f      	movs	r4, #15
     6b4:	f8cb 5034 	str.w	r5, [fp, #52]	; 0x34
     6b8:	f9ba c026 	ldrsh.w	ip, [sl, #38]	; 0x26
     6bc:	635c      	str	r4, [r3, #52]	; 0x34
     6be:	631f      	str	r7, [r3, #48]	; 0x30
     6c0:	f898 e014 	ldrb.w	lr, [r8, #20]
     6c4:	f9ba 4024 	ldrsh.w	r4, [sl, #36]	; 0x24
     6c8:	44b4      	add	ip, r6
     6ca:	f1ae 0e80 	sub.w	lr, lr, #128	; 0x80
     6ce:	4434      	add	r4, r6
     6d0:	f89c 8014 	ldrb.w	r8, [ip, #20]
     6d4:	7d24      	ldrb	r4, [r4, #20]
     6d6:	6359      	str	r1, [r3, #52]	; 0x34
     6d8:	fa1f fe8e 	uxth.w	lr, lr
     6dc:	fa0f f78e 	sxth.w	r7, lr
     6e0:	eb07 0c47 	add.w	ip, r7, r7, lsl #1
     6e4:	f1a8 0880 	sub.w	r8, r8, #128	; 0x80
     6e8:	eb0c 1c0c 	add.w	ip, ip, ip, lsl #4
     6ec:	fa1f f888 	uxth.w	r8, r8
     6f0:	f64f 799c 	movw	r9, #65436	; 0xff9c
     6f4:	3c10      	subs	r4, #16
     6f6:	b2a4      	uxth	r4, r4
     6f8:	eb07 07cc 	add.w	r7, r7, ip, lsl #3
     6fc:	fa0f fc88 	sxth.w	ip, r8
     700:	fb18 f809 	smulbb	r8, r8, r9
     704:	fb14 8800 	smlabb	r8, r4, r0, r8
     708:	f64f 7930 	movw	r9, #65328	; 0xff30
     70c:	eb0c 1ccc 	add.w	ip, ip, ip, lsl #7
     710:	fb14 7700 	smlabb	r7, r4, r0, r7
     714:	fb1e 8e09 	smlabb	lr, lr, r9, r8
     718:	ea4f 0c8c 	mov.w	ip, ip, lsl #2
     71c:	fb14 cc00 	smlabb	ip, r4, r0, ip
     720:	f20e 1e4d 	addw	lr, lr, #333	; 0x14d
     724:	f207 174d 	addw	r7, r7, #333	; 0x14d
     728:	f9ba 902e 	ldrsh.w	r9, [sl, #46]	; 0x2e
     72c:	631a      	str	r2, [r3, #48]	; 0x30
     72e:	fa0e f402 	lsl.w	r4, lr, r2
     732:	4097      	lsls	r7, r2
     734:	f20c 184d 	addw	r8, ip, #333	; 0x14d
     738:	f8cb 5034 	str.w	r5, [fp, #52]	; 0x34
     73c:	f9ba e02a 	ldrsh.w	lr, [sl, #42]	; 0x2a
     740:	f8cb 7030 	str.w	r7, [fp, #48]	; 0x30
     744:	fa08 f802 	lsl.w	r8, r8, r2
     748:	6359      	str	r1, [r3, #52]	; 0x34
     74a:	631a      	str	r2, [r3, #48]	; 0x30
     74c:	f8cb 5034 	str.w	r5, [fp, #52]	; 0x34
     750:	f8cb 4030 	str.w	r4, [fp, #48]	; 0x30
     754:	240f      	movs	r4, #15
     756:	f8cd e00c 	str.w	lr, [sp, #12]
     75a:	f9ba 702c 	ldrsh.w	r7, [sl, #44]	; 0x2c
     75e:	6359      	str	r1, [r3, #52]	; 0x34
     760:	eb06 0c09 	add.w	ip, r6, r9
     764:	631a      	str	r2, [r3, #48]	; 0x30
     766:	f8cb 5034 	str.w	r5, [fp, #52]	; 0x34
     76a:	f8cb 8030 	str.w	r8, [fp, #48]	; 0x30
     76e:	f8cb 5034 	str.w	r5, [fp, #52]	; 0x34
     772:	635c      	str	r4, [r3, #52]	; 0x34
     774:	2401      	movs	r4, #1
     776:	631c      	str	r4, [r3, #48]	; 0x30
     778:	f89c e014 	ldrb.w	lr, [ip, #20]
     77c:	9c03      	ldr	r4, [sp, #12]
     77e:	4437      	add	r7, r6
     780:	4434      	add	r4, r6
     782:	f1ae 0e80 	sub.w	lr, lr, #128	; 0x80
     786:	f897 9014 	ldrb.w	r9, [r7, #20]
     78a:	f9ba 7034 	ldrsh.w	r7, [sl, #52]	; 0x34
     78e:	9701      	str	r7, [sp, #4]
     790:	fa1f fe8e 	uxth.w	lr, lr
     794:	7d24      	ldrb	r4, [r4, #20]
     796:	6359      	str	r1, [r3, #52]	; 0x34
     798:	fa0f f78e 	sxth.w	r7, lr
     79c:	eb07 0c47 	add.w	ip, r7, r7, lsl #1
     7a0:	f1a9 0980 	sub.w	r9, r9, #128	; 0x80
     7a4:	fa1f f989 	uxth.w	r9, r9
     7a8:	3c10      	subs	r4, #16
     7aa:	f64f 789c 	movw	r8, #65436	; 0xff9c
     7ae:	eb0c 1c0c 	add.w	ip, ip, ip, lsl #4
     7b2:	b2a4      	uxth	r4, r4
     7b4:	eb07 0ccc 	add.w	ip, r7, ip, lsl #3
     7b8:	fb19 f808 	smulbb	r8, r9, r8
     7bc:	f8cd c008 	str.w	ip, [sp, #8]
     7c0:	fb14 8800 	smlabb	r8, r4, r0, r8
     7c4:	f64f 7c30 	movw	ip, #65328	; 0xff30
     7c8:	fb1e 870c 	smlabb	r7, lr, ip, r8
     7cc:	fa0f f989 	sxth.w	r9, r9
     7d0:	f8dd e008 	ldr.w	lr, [sp, #8]
     7d4:	f8dd 8004 	ldr.w	r8, [sp, #4]
     7d8:	631a      	str	r2, [r3, #48]	; 0x30
     7da:	eb09 19c9 	add.w	r9, r9, r9, lsl #7
     7de:	fb14 ec00 	smlabb	ip, r4, r0, lr
     7e2:	ea4f 0989 	mov.w	r9, r9, lsl #2
     7e6:	fb14 9900 	smlabb	r9, r4, r0, r9
     7ea:	f20c 1c4d 	addw	ip, ip, #333	; 0x14d
     7ee:	f207 144d 	addw	r4, r7, #333	; 0x14d
     7f2:	4094      	lsls	r4, r2
     7f4:	fa0c fc02 	lsl.w	ip, ip, r2
     7f8:	f209 194d 	addw	r9, r9, #333	; 0x14d
     7fc:	f8cb 5034 	str.w	r5, [fp, #52]	; 0x34
     800:	fa09 f902 	lsl.w	r9, r9, r2
     804:	f8cb c030 	str.w	ip, [fp, #48]	; 0x30
     808:	6359      	str	r1, [r3, #52]	; 0x34
     80a:	631a      	str	r2, [r3, #48]	; 0x30
     80c:	f8cb 5034 	str.w	r5, [fp, #52]	; 0x34
     810:	f8cb 4030 	str.w	r4, [fp, #48]	; 0x30
     814:	240f      	movs	r4, #15
     816:	6359      	str	r1, [r3, #52]	; 0x34
     818:	f9ba 7032 	ldrsh.w	r7, [sl, #50]	; 0x32
     81c:	631a      	str	r2, [r3, #48]	; 0x30
     81e:	44b0      	add	r8, r6
     820:	f8cb 5034 	str.w	r5, [fp, #52]	; 0x34
     824:	f8cb 9030 	str.w	r9, [fp, #48]	; 0x30
     828:	f8cb 5034 	str.w	r5, [fp, #52]	; 0x34
     82c:	635c      	str	r4, [r3, #52]	; 0x34
     82e:	2401      	movs	r4, #1
     830:	631c      	str	r4, [r3, #48]	; 0x30
     832:	f9ba c030 	ldrsh.w	ip, [sl, #48]	; 0x30
     836:	f898 e014 	ldrb.w	lr, [r8, #20]
     83a:	4437      	add	r7, r6
     83c:	44b4      	add	ip, r6
     83e:	f897 9014 	ldrb.w	r9, [r7, #20]
     842:	f89c 4014 	ldrb.w	r4, [ip, #20]
     846:	f1ae 0e80 	sub.w	lr, lr, #128	; 0x80
     84a:	fa1f fe8e 	uxth.w	lr, lr
     84e:	fa0f f78e 	sxth.w	r7, lr
     852:	f1a9 0980 	sub.w	r9, r9, #128	; 0x80
     856:	fa1f f989 	uxth.w	r9, r9
     85a:	eb07 0c47 	add.w	ip, r7, r7, lsl #1
     85e:	f8cd e008 	str.w	lr, [sp, #8]
     862:	fa0f f889 	sxth.w	r8, r9
     866:	f64f 7e9c 	movw	lr, #65436	; 0xff9c
     86a:	3c10      	subs	r4, #16
     86c:	eb0c 1c0c 	add.w	ip, ip, ip, lsl #4
     870:	6359      	str	r1, [r3, #52]	; 0x34
     872:	b2a4      	uxth	r4, r4
     874:	fb19 f90e 	smulbb	r9, r9, lr
     878:	eb07 0ccc 	add.w	ip, r7, ip, lsl #3
     87c:	eb08 18c8 	add.w	r8, r8, r8, lsl #7
     880:	9f02      	ldr	r7, [sp, #8]
     882:	fb14 9900 	smlabb	r9, r4, r0, r9
     886:	f64f 7e30 	movw	lr, #65328	; 0xff30
     88a:	ea4f 0888 	mov.w	r8, r8, lsl #2
     88e:	fb17 990e 	smlabb	r9, r7, lr, r9
     892:	fb14 8800 	smlabb	r8, r4, r0, r8
     896:	fb14 cc00 	smlabb	ip, r4, r0, ip
     89a:	f9ba e03a 	ldrsh.w	lr, [sl, #58]	; 0x3a
     89e:	f9ba 4038 	ldrsh.w	r4, [sl, #56]	; 0x38
     8a2:	9403      	str	r4, [sp, #12]
     8a4:	f209 194d 	addw	r9, r9, #333	; 0x14d
     8a8:	f208 184d 	addw	r8, r8, #333	; 0x14d
     8ac:	f20c 1c4d 	addw	ip, ip, #333	; 0x14d
     8b0:	fa09 f702 	lsl.w	r7, r9, r2
     8b4:	fa08 f402 	lsl.w	r4, r8, r2
     8b8:	fa0c fc02 	lsl.w	ip, ip, r2
     8bc:	631a      	str	r2, [r3, #48]	; 0x30
     8be:	f8dd 900c 	ldr.w	r9, [sp, #12]
     8c2:	f8cb 5034 	str.w	r5, [fp, #52]	; 0x34
     8c6:	44b6      	add	lr, r6
     8c8:	f8cb c030 	str.w	ip, [fp, #48]	; 0x30
     8cc:	6359      	str	r1, [r3, #52]	; 0x34
     8ce:	631a      	str	r2, [r3, #48]	; 0x30
     8d0:	f8cb 5034 	str.w	r5, [fp, #52]	; 0x34
     8d4:	f8cb 7030 	str.w	r7, [fp, #48]	; 0x30
     8d8:	6359      	str	r1, [r3, #52]	; 0x34
     8da:	270f      	movs	r7, #15
     8dc:	631a      	str	r2, [r3, #48]	; 0x30
     8de:	f8cb 5034 	str.w	r5, [fp, #52]	; 0x34
     8e2:	f8cb 4030 	str.w	r4, [fp, #48]	; 0x30
     8e6:	2401      	movs	r4, #1
     8e8:	f8cb 5034 	str.w	r5, [fp, #52]	; 0x34
     8ec:	635f      	str	r7, [r3, #52]	; 0x34
     8ee:	631c      	str	r4, [r3, #48]	; 0x30
     8f0:	f89e e014 	ldrb.w	lr, [lr, #20]
     8f4:	f9ba 8036 	ldrsh.w	r8, [sl, #54]	; 0x36
     8f8:	44b1      	add	r9, r6
     8fa:	f1ae 0e80 	sub.w	lr, lr, #128	; 0x80
     8fe:	fa1f fe8e 	uxth.w	lr, lr
     902:	f899 c014 	ldrb.w	ip, [r9, #20]
     906:	fa0f f78e 	sxth.w	r7, lr
     90a:	44b0      	add	r8, r6
     90c:	eb07 0947 	add.w	r9, r7, r7, lsl #1
     910:	f898 4014 	ldrb.w	r4, [r8, #20]
     914:	6359      	str	r1, [r3, #52]	; 0x34
     916:	eb09 1909 	add.w	r9, r9, r9, lsl #4
     91a:	f1ac 0c80 	sub.w	ip, ip, #128	; 0x80
     91e:	f8cd 900c 	str.w	r9, [sp, #12]
     922:	fa1f fc8c 	uxth.w	ip, ip
     926:	f64f 799c 	movw	r9, #65436	; 0xff9c
     92a:	fa0f f88c 	sxth.w	r8, ip
     92e:	3c10      	subs	r4, #16
     930:	fb1c fc09 	smulbb	ip, ip, r9
     934:	f8dd 900c 	ldr.w	r9, [sp, #12]
     938:	631a      	str	r2, [r3, #48]	; 0x30
     93a:	b2a4      	uxth	r4, r4
     93c:	fb14 cc00 	smlabb	ip, r4, r0, ip
     940:	eb07 07c9 	add.w	r7, r7, r9, lsl #3
     944:	f64f 7930 	movw	r9, #65328	; 0xff30
     948:	fb14 7700 	smlabb	r7, r4, r0, r7
     94c:	fb1e cc09 	smlabb	ip, lr, r9, ip
     950:	eb08 18c8 	add.w	r8, r8, r8, lsl #7
     954:	f20c 1c4d 	addw	ip, ip, #333	; 0x14d
     958:	ea4f 0888 	mov.w	r8, r8, lsl #2
     95c:	f207 174d 	addw	r7, r7, #333	; 0x14d
     960:	fb14 8800 	smlabb	r8, r4, r0, r8
     964:	4097      	lsls	r7, r2
     966:	fa0c f402 	lsl.w	r4, ip, r2
     96a:	f8cb 5034 	str.w	r5, [fp, #52]	; 0x34
     96e:	f208 184d 	addw	r8, r8, #333	; 0x14d
     972:	f8cb 7030 	str.w	r7, [fp, #48]	; 0x30
     976:	6359      	str	r1, [r3, #52]	; 0x34
     978:	631a      	str	r2, [r3, #48]	; 0x30
     97a:	f8cb 5034 	str.w	r5, [fp, #52]	; 0x34
     97e:	f8cb 4030 	str.w	r4, [fp, #48]	; 0x30
     982:	6359      	str	r1, [r3, #52]	; 0x34
     984:	f9ba e040 	ldrsh.w	lr, [sl, #64]	; 0x40
     988:	631a      	str	r2, [r3, #48]	; 0x30
     98a:	fa08 f802 	lsl.w	r8, r8, r2
     98e:	240f      	movs	r4, #15
     990:	f8cb 5034 	str.w	r5, [fp, #52]	; 0x34
     994:	44b6      	add	lr, r6
     996:	f8cb 8030 	str.w	r8, [fp, #48]	; 0x30
     99a:	f8cb 5034 	str.w	r5, [fp, #52]	; 0x34
     99e:	635c      	str	r4, [r3, #52]	; 0x34
     9a0:	2401      	movs	r4, #1
     9a2:	631c      	str	r4, [r3, #48]	; 0x30
     9a4:	f9ba 703e 	ldrsh.w	r7, [sl, #62]	; 0x3e
     9a8:	f89e e014 	ldrb.w	lr, [lr, #20]
     9ac:	f9ba 403c 	ldrsh.w	r4, [sl, #60]	; 0x3c
     9b0:	f9ba 8046 	ldrsh.w	r8, [sl, #70]	; 0x46
     9b4:	f8cd 800c 	str.w	r8, [sp, #12]
     9b8:	4437      	add	r7, r6
     9ba:	f1ae 0e80 	sub.w	lr, lr, #128	; 0x80
     9be:	f897 c014 	ldrb.w	ip, [r7, #20]
     9c2:	fa1f fe8e 	uxth.w	lr, lr
     9c6:	fa0f f78e 	sxth.w	r7, lr
     9ca:	4434      	add	r4, r6
     9cc:	eb07 0847 	add.w	r8, r7, r7, lsl #1
     9d0:	f1ac 0c80 	sub.w	ip, ip, #128	; 0x80
     9d4:	7d24      	ldrb	r4, [r4, #20]
     9d6:	6359      	str	r1, [r3, #52]	; 0x34
     9d8:	fa1f fc8c 	uxth.w	ip, ip
     9dc:	eb08 1808 	add.w	r8, r8, r8, lsl #4
     9e0:	eb07 07c8 	add.w	r7, r7, r8, lsl #3
     9e4:	fa0f f88c 	sxth.w	r8, ip
     9e8:	f64f 799c 	movw	r9, #65436	; 0xff9c
     9ec:	3c10      	subs	r4, #16
     9ee:	eb08 18c8 	add.w	r8, r8, r8, lsl #7
     9f2:	b2a4      	uxth	r4, r4
     9f4:	fb1c fc09 	smulbb	ip, ip, r9
     9f8:	ea4f 0888 	mov.w	r8, r8, lsl #2
     9fc:	fb14 cc00 	smlabb	ip, r4, r0, ip
     a00:	fb14 7700 	smlabb	r7, r4, r0, r7
     a04:	fb14 8800 	smlabb	r8, r4, r0, r8
     a08:	f64f 7430 	movw	r4, #65328	; 0xff30
     a0c:	fb1e cc04 	smlabb	ip, lr, r4, ip
     a10:	f8dd 900c 	ldr.w	r9, [sp, #12]
     a14:	631a      	str	r2, [r3, #48]	; 0x30
     a16:	f208 184d 	addw	r8, r8, #333	; 0x14d
     a1a:	f207 174d 	addw	r7, r7, #333	; 0x14d
     a1e:	f20c 1c4d 	addw	ip, ip, #333	; 0x14d
     a22:	fa08 f402 	lsl.w	r4, r8, r2
     a26:	4097      	lsls	r7, r2
     a28:	fa0c fc02 	lsl.w	ip, ip, r2
     a2c:	f8cb 5034 	str.w	r5, [fp, #52]	; 0x34
     a30:	44b1      	add	r9, r6
     a32:	f8cb 7030 	str.w	r7, [fp, #48]	; 0x30
     a36:	6359      	str	r1, [r3, #52]	; 0x34
     a38:	270f      	movs	r7, #15
     a3a:	631a      	str	r2, [r3, #48]	; 0x30
     a3c:	f8cb 5034 	str.w	r5, [fp, #52]	; 0x34
     a40:	f8cb c030 	str.w	ip, [fp, #48]	; 0x30
     a44:	6359      	str	r1, [r3, #52]	; 0x34
     a46:	631a      	str	r2, [r3, #48]	; 0x30
     a48:	f8cb 5034 	str.w	r5, [fp, #52]	; 0x34
     a4c:	f8cb 4030 	str.w	r4, [fp, #48]	; 0x30
     a50:	2401      	movs	r4, #1
     a52:	f8cb 5034 	str.w	r5, [fp, #52]	; 0x34
     a56:	f9ba c044 	ldrsh.w	ip, [sl, #68]	; 0x44
     a5a:	635f      	str	r7, [r3, #52]	; 0x34
     a5c:	631c      	str	r4, [r3, #48]	; 0x30
     a5e:	f899 e014 	ldrb.w	lr, [r9, #20]
     a62:	f9ba 4042 	ldrsh.w	r4, [sl, #66]	; 0x42
     a66:	44b4      	add	ip, r6
     a68:	f1ae 0e80 	sub.w	lr, lr, #128	; 0x80
     a6c:	4434      	add	r4, r6
     a6e:	fa1f fe8e 	uxth.w	lr, lr
     a72:	f89c c014 	ldrb.w	ip, [ip, #20]
     a76:	7d24      	ldrb	r4, [r4, #20]
     a78:	6359      	str	r1, [r3, #52]	; 0x34
     a7a:	fa0f f78e 	sxth.w	r7, lr
     a7e:	eb07 0847 	add.w	r8, r7, r7, lsl #1
     a82:	f1ac 0c80 	sub.w	ip, ip, #128	; 0x80
     a86:	eb08 1808 	add.w	r8, r8, r8, lsl #4
     a8a:	fa1f fc8c 	uxth.w	ip, ip
     a8e:	f64f 799c 	movw	r9, #65436	; 0xff9c
     a92:	3c10      	subs	r4, #16
     a94:	b2a4      	uxth	r4, r4
     a96:	eb07 07c8 	add.w	r7, r7, r8, lsl #3
     a9a:	fa0f f88c 	sxth.w	r8, ip
     a9e:	fb1c fc09 	smulbb	ip, ip, r9
     aa2:	fb14 cc00 	smlabb	ip, r4, r0, ip
     aa6:	f64f 7930 	movw	r9, #65328	; 0xff30
     aaa:	eb08 18c8 	add.w	r8, r8, r8, lsl #7
     aae:	fb14 7700 	smlabb	r7, r4, r0, r7
     ab2:	fb1e ce09 	smlabb	lr, lr, r9, ip
     ab6:	ea4f 0888 	mov.w	r8, r8, lsl #2
     aba:	fb14 8800 	smlabb	r8, r4, r0, r8
     abe:	f20e 1e4d 	addw	lr, lr, #333	; 0x14d
     ac2:	f207 174d 	addw	r7, r7, #333	; 0x14d
     ac6:	f9ba c04c 	ldrsh.w	ip, [sl, #76]	; 0x4c
     aca:	631a      	str	r2, [r3, #48]	; 0x30
     acc:	fa0e f402 	lsl.w	r4, lr, r2
     ad0:	4097      	lsls	r7, r2
     ad2:	f208 184d 	addw	r8, r8, #333	; 0x14d
     ad6:	f8cb 5034 	str.w	r5, [fp, #52]	; 0x34
     ada:	fa08 f802 	lsl.w	r8, r8, r2
     ade:	f8cb 7030 	str.w	r7, [fp, #48]	; 0x30
     ae2:	6359      	str	r1, [r3, #52]	; 0x34
     ae4:	631a      	str	r2, [r3, #48]	; 0x30
     ae6:	f8cb 5034 	str.w	r5, [fp, #52]	; 0x34
     aea:	f8cb 4030 	str.w	r4, [fp, #48]	; 0x30
     aee:	240f      	movs	r4, #15
     af0:	6359      	str	r1, [r3, #52]	; 0x34
     af2:	44b4      	add	ip, r6
     af4:	631a      	str	r2, [r3, #48]	; 0x30
     af6:	f8cb 5034 	str.w	r5, [fp, #52]	; 0x34
     afa:	f8cb 8030 	str.w	r8, [fp, #48]	; 0x30
     afe:	f8cb 5034 	str.w	r5, [fp, #52]	; 0x34
     b02:	635c      	str	r4, [r3, #52]	; 0x34
     b04:	2401      	movs	r4, #1
     b06:	631c      	str	r4, [r3, #48]	; 0x30
     b08:	f9ba 704a 	ldrsh.w	r7, [sl, #74]	; 0x4a
     b0c:	f89c e014 	ldrb.w	lr, [ip, #20]
     b10:	f9ba 9048 	ldrsh.w	r9, [sl, #72]	; 0x48
     b14:	4437      	add	r7, r6
     b16:	f1ae 0e80 	sub.w	lr, lr, #128	; 0x80
     b1a:	f897 c014 	ldrb.w	ip, [r7, #20]
     b1e:	f9ba 7052 	ldrsh.w	r7, [sl, #82]	; 0x52
     b22:	9703      	str	r7, [sp, #12]
     b24:	fa1f fe8e 	uxth.w	lr, lr
     b28:	fa0f f78e 	sxth.w	r7, lr
     b2c:	eb09 0406 	add.w	r4, r9, r6
     b30:	eb07 0847 	add.w	r8, r7, r7, lsl #1
     b34:	f1ac 0c80 	sub.w	ip, ip, #128	; 0x80
     b38:	7d24      	ldrb	r4, [r4, #20]
     b3a:	6359      	str	r1, [r3, #52]	; 0x34
     b3c:	fa1f fc8c 	uxth.w	ip, ip
     b40:	eb08 1808 	add.w	r8, r8, r8, lsl #4
     b44:	eb07 07c8 	add.w	r7, r7, r8, lsl #3
     b48:	fa0f f88c 	sxth.w	r8, ip
     b4c:	f64f 799c 	movw	r9, #65436	; 0xff9c
     b50:	3c10      	subs	r4, #16
     b52:	eb08 18c8 	add.w	r8, r8, r8, lsl #7
     b56:	b2a4      	uxth	r4, r4
     b58:	fb1c fc09 	smulbb	ip, ip, r9
     b5c:	ea4f 0888 	mov.w	r8, r8, lsl #2
     b60:	fb14 cc00 	smlabb	ip, r4, r0, ip
     b64:	fb14 7700 	smlabb	r7, r4, r0, r7
     b68:	fb14 8800 	smlabb	r8, r4, r0, r8
     b6c:	f64f 7430 	movw	r4, #65328	; 0xff30
     b70:	fb1e cc04 	smlabb	ip, lr, r4, ip
     b74:	f208 184d 	addw	r8, r8, #333	; 0x14d
     b78:	f207 174d 	addw	r7, r7, #333	; 0x14d
     b7c:	f20c 1c4d 	addw	ip, ip, #333	; 0x14d
     b80:	f8dd 900c 	ldr.w	r9, [sp, #12]
     b84:	631a      	str	r2, [r3, #48]	; 0x30
     b86:	fa08 f402 	lsl.w	r4, r8, r2
     b8a:	4097      	lsls	r7, r2
     b8c:	fa0c fc02 	lsl.w	ip, ip, r2
     b90:	f8cb 5034 	str.w	r5, [fp, #52]	; 0x34
     b94:	f9ba e050 	ldrsh.w	lr, [sl, #80]	; 0x50
     b98:	f8cb 7030 	str.w	r7, [fp, #48]	; 0x30
     b9c:	6359      	str	r1, [r3, #52]	; 0x34
     b9e:	f9ba 704e 	ldrsh.w	r7, [sl, #78]	; 0x4e
     ba2:	631a      	str	r2, [r3, #48]	; 0x30
     ba4:	f8cb 5034 	str.w	r5, [fp, #52]	; 0x34
     ba8:	f8cb c030 	str.w	ip, [fp, #48]	; 0x30
     bac:	6359      	str	r1, [r3, #52]	; 0x34
     bae:	631a      	str	r2, [r3, #48]	; 0x30
     bb0:	f8cb 5034 	str.w	r5, [fp, #52]	; 0x34
     bb4:	f8cb 4030 	str.w	r4, [fp, #48]	; 0x30
     bb8:	240f      	movs	r4, #15
     bba:	f8cb 5034 	str.w	r5, [fp, #52]	; 0x34
     bbe:	44b1      	add	r9, r6
     bc0:	635c      	str	r4, [r3, #52]	; 0x34
     bc2:	2401      	movs	r4, #1
     bc4:	631c      	str	r4, [r3, #48]	; 0x30
     bc6:	eb06 080e 	add.w	r8, r6, lr
     bca:	f899 e014 	ldrb.w	lr, [r9, #20]
     bce:	f898 c014 	ldrb.w	ip, [r8, #20]
     bd2:	4437      	add	r7, r6
     bd4:	f1ae 0e80 	sub.w	lr, lr, #128	; 0x80
     bd8:	fa1f fe8e 	uxth.w	lr, lr
     bdc:	7d3c      	ldrb	r4, [r7, #20]
     bde:	6359      	str	r1, [r3, #52]	; 0x34
     be0:	fa0f f78e 	sxth.w	r7, lr
     be4:	eb07 0947 	add.w	r9, r7, r7, lsl #1
     be8:	eb09 1909 	add.w	r9, r9, r9, lsl #4
     bec:	f1ac 0c80 	sub.w	ip, ip, #128	; 0x80
     bf0:	f8cd 900c 	str.w	r9, [sp, #12]
     bf4:	fa1f fc8c 	uxth.w	ip, ip
     bf8:	f64f 799c 	movw	r9, #65436	; 0xff9c
     bfc:	fa0f f88c 	sxth.w	r8, ip
     c00:	fb1c fc09 	smulbb	ip, ip, r9
     c04:	f8dd 900c 	ldr.w	r9, [sp, #12]
     c08:	631a      	str	r2, [r3, #48]	; 0x30
     c0a:	3c10      	subs	r4, #16
     c0c:	eb08 18c8 	add.w	r8, r8, r8, lsl #7
     c10:	b2a4      	uxth	r4, r4
     c12:	eb07 07c9 	add.w	r7, r7, r9, lsl #3
     c16:	ea4f 0888 	mov.w	r8, r8, lsl #2
     c1a:	fb14 cc00 	smlabb	ip, r4, r0, ip
     c1e:	fb14 7700 	smlabb	r7, r4, r0, r7
     c22:	fb14 8800 	smlabb	r8, r4, r0, r8
     c26:	f64f 7430 	movw	r4, #65328	; 0xff30
     c2a:	fb1e cc04 	smlabb	ip, lr, r4, ip
     c2e:	f208 184d 	addw	r8, r8, #333	; 0x14d
     c32:	f207 174d 	addw	r7, r7, #333	; 0x14d
     c36:	f20c 1c4d 	addw	ip, ip, #333	; 0x14d
     c3a:	f9ba 9058 	ldrsh.w	r9, [sl, #88]	; 0x58
     c3e:	f8cb 5034 	str.w	r5, [fp, #52]	; 0x34
     c42:	fa08 f402 	lsl.w	r4, r8, r2
     c46:	4097      	lsls	r7, r2
     c48:	fa0c fc02 	lsl.w	ip, ip, r2
     c4c:	f8cb 7030 	str.w	r7, [fp, #48]	; 0x30
     c50:	6359      	str	r1, [r3, #52]	; 0x34
     c52:	631a      	str	r2, [r3, #48]	; 0x30
     c54:	f8cb 5034 	str.w	r5, [fp, #52]	; 0x34
     c58:	f8cb c030 	str.w	ip, [fp, #48]	; 0x30
     c5c:	6359      	str	r1, [r3, #52]	; 0x34
     c5e:	631a      	str	r2, [r3, #48]	; 0x30
     c60:	f8cb 5034 	str.w	r5, [fp, #52]	; 0x34
     c64:	f8cb 4030 	str.w	r4, [fp, #48]	; 0x30
     c68:	240f      	movs	r4, #15
     c6a:	f8cb 5034 	str.w	r5, [fp, #52]	; 0x34
     c6e:	f9ba e056 	ldrsh.w	lr, [sl, #86]	; 0x56
     c72:	635c      	str	r4, [r3, #52]	; 0x34
     c74:	44b1      	add	r9, r6
     c76:	2401      	movs	r4, #1
     c78:	631c      	str	r4, [r3, #48]	; 0x30
     c7a:	eb06 080e 	add.w	r8, r6, lr
     c7e:	f9ba 7054 	ldrsh.w	r7, [sl, #84]	; 0x54
     c82:	f899 e014 	ldrb.w	lr, [r9, #20]
     c86:	f898 c014 	ldrb.w	ip, [r8, #20]
     c8a:	4437      	add	r7, r6
     c8c:	f1ae 0e80 	sub.w	lr, lr, #128	; 0x80
     c90:	fa1f fe8e 	uxth.w	lr, lr
     c94:	7d3c      	ldrb	r4, [r7, #20]
     c96:	6359      	str	r1, [r3, #52]	; 0x34
     c98:	fa0f f78e 	sxth.w	r7, lr
     c9c:	eb07 0947 	add.w	r9, r7, r7, lsl #1
     ca0:	eb09 1909 	add.w	r9, r9, r9, lsl #4
     ca4:	f1ac 0c80 	sub.w	ip, ip, #128	; 0x80
     ca8:	f8cd 900c 	str.w	r9, [sp, #12]
     cac:	fa1f fc8c 	uxth.w	ip, ip
     cb0:	f64f 799c 	movw	r9, #65436	; 0xff9c
     cb4:	fa0f f88c 	sxth.w	r8, ip
     cb8:	3c10      	subs	r4, #16
     cba:	fb1c fc09 	smulbb	ip, ip, r9
     cbe:	f8dd 900c 	ldr.w	r9, [sp, #12]
     cc2:	631a      	str	r2, [r3, #48]	; 0x30
     cc4:	b2a4      	uxth	r4, r4
     cc6:	fb14 cc00 	smlabb	ip, r4, r0, ip
     cca:	eb07 07c9 	add.w	r7, r7, r9, lsl #3
     cce:	eb08 18c8 	add.w	r8, r8, r8, lsl #7
     cd2:	f64f 7930 	movw	r9, #65328	; 0xff30
     cd6:	fb14 7700 	smlabb	r7, r4, r0, r7
     cda:	fb1e cc09 	smlabb	ip, lr, r9, ip
     cde:	ea4f 0888 	mov.w	r8, r8, lsl #2
     ce2:	fb14 8800 	smlabb	r8, r4, r0, r8
     ce6:	f20c 1c4d 	addw	ip, ip, #333	; 0x14d
     cea:	f207 174d 	addw	r7, r7, #333	; 0x14d
     cee:	fa0c f402 	lsl.w	r4, ip, r2
     cf2:	f9ba e05e 	ldrsh.w	lr, [sl, #94]	; 0x5e
     cf6:	f8cb 5034 	str.w	r5, [fp, #52]	; 0x34
     cfa:	4097      	lsls	r7, r2
     cfc:	f208 184d 	addw	r8, r8, #333	; 0x14d
     d00:	f8cb 7030 	str.w	r7, [fp, #48]	; 0x30
     d04:	fa08 f802 	lsl.w	r8, r8, r2
     d08:	6359      	str	r1, [r3, #52]	; 0x34
     d0a:	631a      	str	r2, [r3, #48]	; 0x30
     d0c:	f8cb 5034 	str.w	r5, [fp, #52]	; 0x34
     d10:	f8cb 4030 	str.w	r4, [fp, #48]	; 0x30
     d14:	240f      	movs	r4, #15
     d16:	6359      	str	r1, [r3, #52]	; 0x34
     d18:	44b6      	add	lr, r6
     d1a:	631a      	str	r2, [r3, #48]	; 0x30
     d1c:	f8cb 5034 	str.w	r5, [fp, #52]	; 0x34
     d20:	f8cb 8030 	str.w	r8, [fp, #48]	; 0x30
     d24:	f8cb 5034 	str.w	r5, [fp, #52]	; 0x34
     d28:	635c      	str	r4, [r3, #52]	; 0x34
     d2a:	2401      	movs	r4, #1
     d2c:	631c      	str	r4, [r3, #48]	; 0x30
     d2e:	f9ba 705c 	ldrsh.w	r7, [sl, #92]	; 0x5c
     d32:	f89e e014 	ldrb.w	lr, [lr, #20]
     d36:	f9ba 405a 	ldrsh.w	r4, [sl, #90]	; 0x5a
     d3a:	f9ba 8064 	ldrsh.w	r8, [sl, #100]	; 0x64
     d3e:	f8cd 800c 	str.w	r8, [sp, #12]
     d42:	4437      	add	r7, r6
     d44:	f1ae 0e80 	sub.w	lr, lr, #128	; 0x80
     d48:	f897 c014 	ldrb.w	ip, [r7, #20]
     d4c:	fa1f fe8e 	uxth.w	lr, lr
     d50:	fa0f f78e 	sxth.w	r7, lr
     d54:	4434      	add	r4, r6
     d56:	eb07 0847 	add.w	r8, r7, r7, lsl #1
     d5a:	f1ac 0c80 	sub.w	ip, ip, #128	; 0x80
     d5e:	7d24      	ldrb	r4, [r4, #20]
     d60:	6359      	str	r1, [r3, #52]	; 0x34
     d62:	fa1f fc8c 	uxth.w	ip, ip
     d66:	eb08 1808 	add.w	r8, r8, r8, lsl #4
     d6a:	eb07 07c8 	add.w	r7, r7, r8, lsl #3
     d6e:	fa0f f88c 	sxth.w	r8, ip
     d72:	f64f 799c 	movw	r9, #65436	; 0xff9c
     d76:	3c10      	subs	r4, #16
     d78:	eb08 18c8 	add.w	r8, r8, r8, lsl #7
     d7c:	b2a4      	uxth	r4, r4
     d7e:	fb1c fc09 	smulbb	ip, ip, r9
     d82:	ea4f 0888 	mov.w	r8, r8, lsl #2
     d86:	fb14 cc00 	smlabb	ip, r4, r0, ip
     d8a:	fb14 7700 	smlabb	r7, r4, r0, r7
     d8e:	fb14 8800 	smlabb	r8, r4, r0, r8
     d92:	f64f 7430 	movw	r4, #65328	; 0xff30
     d96:	fb1e cc04 	smlabb	ip, lr, r4, ip
     d9a:	f8dd 900c 	ldr.w	r9, [sp, #12]
     d9e:	631a      	str	r2, [r3, #48]	; 0x30
     da0:	f208 184d 	addw	r8, r8, #333	; 0x14d
     da4:	f207 174d 	addw	r7, r7, #333	; 0x14d
     da8:	f20c 1c4d 	addw	ip, ip, #333	; 0x14d
     dac:	fa08 f402 	lsl.w	r4, r8, r2
     db0:	4097      	lsls	r7, r2
     db2:	fa0c fc02 	lsl.w	ip, ip, r2
     db6:	f8cb 5034 	str.w	r5, [fp, #52]	; 0x34
     dba:	44b1      	add	r9, r6
     dbc:	f8cb 7030 	str.w	r7, [fp, #48]	; 0x30
     dc0:	6359      	str	r1, [r3, #52]	; 0x34
     dc2:	270f      	movs	r7, #15
     dc4:	631a      	str	r2, [r3, #48]	; 0x30
     dc6:	f8cb 5034 	str.w	r5, [fp, #52]	; 0x34
     dca:	f8cb c030 	str.w	ip, [fp, #48]	; 0x30
     dce:	6359      	str	r1, [r3, #52]	; 0x34
     dd0:	631a      	str	r2, [r3, #48]	; 0x30
     dd2:	f8cb 5034 	str.w	r5, [fp, #52]	; 0x34
     dd6:	f8cb 4030 	str.w	r4, [fp, #48]	; 0x30
     dda:	2401      	movs	r4, #1
     ddc:	f8cb 5034 	str.w	r5, [fp, #52]	; 0x34
     de0:	f9ba c062 	ldrsh.w	ip, [sl, #98]	; 0x62
     de4:	635f      	str	r7, [r3, #52]	; 0x34
     de6:	631c      	str	r4, [r3, #48]	; 0x30
     de8:	f899 e014 	ldrb.w	lr, [r9, #20]
     dec:	f9ba 4060 	ldrsh.w	r4, [sl, #96]	; 0x60
     df0:	44b4      	add	ip, r6
     df2:	f1ae 0e80 	sub.w	lr, lr, #128	; 0x80
     df6:	4434      	add	r4, r6
     df8:	f89c c014 	ldrb.w	ip, [ip, #20]
     dfc:	7d24      	ldrb	r4, [r4, #20]
     dfe:	6359      	str	r1, [r3, #52]	; 0x34
     e00:	fa1f fe8e 	uxth.w	lr, lr
     e04:	fa0f f78e 	sxth.w	r7, lr
     e08:	eb07 0847 	add.w	r8, r7, r7, lsl #1
     e0c:	f1ac 0c80 	sub.w	ip, ip, #128	; 0x80
     e10:	eb08 1808 	add.w	r8, r8, r8, lsl #4
     e14:	fa1f fc8c 	uxth.w	ip, ip
     e18:	f64f 799c 	movw	r9, #65436	; 0xff9c
     e1c:	3c10      	subs	r4, #16
     e1e:	b2a4      	uxth	r4, r4
     e20:	eb07 07c8 	add.w	r7, r7, r8, lsl #3
     e24:	fa0f f88c 	sxth.w	r8, ip
     e28:	fb1c fc09 	smulbb	ip, ip, r9
     e2c:	fb14 cc00 	smlabb	ip, r4, r0, ip
     e30:	f64f 7930 	movw	r9, #65328	; 0xff30
     e34:	eb08 18c8 	add.w	r8, r8, r8, lsl #7
     e38:	fb14 7700 	smlabb	r7, r4, r0, r7
     e3c:	fb1e ce09 	smlabb	lr, lr, r9, ip
     e40:	ea4f 0888 	mov.w	r8, r8, lsl #2
     e44:	fb14 8800 	smlabb	r8, r4, r0, r8
     e48:	f20e 1e4d 	addw	lr, lr, #333	; 0x14d
     e4c:	f207 174d 	addw	r7, r7, #333	; 0x14d
     e50:	f9ba c06a 	ldrsh.w	ip, [sl, #106]	; 0x6a
     e54:	631a      	str	r2, [r3, #48]	; 0x30
     e56:	fa0e f402 	lsl.w	r4, lr, r2
     e5a:	4097      	lsls	r7, r2
     e5c:	f208 184d 	addw	r8, r8, #333	; 0x14d
     e60:	f8cb 5034 	str.w	r5, [fp, #52]	; 0x34
     e64:	fa08 f802 	lsl.w	r8, r8, r2
     e68:	f8cb 7030 	str.w	r7, [fp, #48]	; 0x30
     e6c:	6359      	str	r1, [r3, #52]	; 0x34
     e6e:	631a      	str	r2, [r3, #48]	; 0x30
     e70:	f8cb 5034 	str.w	r5, [fp, #52]	; 0x34
     e74:	f8cb 4030 	str.w	r4, [fp, #48]	; 0x30
     e78:	240f      	movs	r4, #15
     e7a:	6359      	str	r1, [r3, #52]	; 0x34
     e7c:	44b4      	add	ip, r6
     e7e:	631a      	str	r2, [r3, #48]	; 0x30
     e80:	f8cb 5034 	str.w	r5, [fp, #52]	; 0x34
     e84:	f8cb 8030 	str.w	r8, [fp, #48]	; 0x30
     e88:	f8cb 5034 	str.w	r5, [fp, #52]	; 0x34
     e8c:	635c      	str	r4, [r3, #52]	; 0x34
     e8e:	2401      	movs	r4, #1
     e90:	631c      	str	r4, [r3, #48]	; 0x30
     e92:	f9ba 7068 	ldrsh.w	r7, [sl, #104]	; 0x68
     e96:	f89c e014 	ldrb.w	lr, [ip, #20]
     e9a:	f9ba 9066 	ldrsh.w	r9, [sl, #102]	; 0x66
     e9e:	4437      	add	r7, r6
     ea0:	f1ae 0e80 	sub.w	lr, lr, #128	; 0x80
     ea4:	f897 c014 	ldrb.w	ip, [r7, #20]
     ea8:	f9ba 7070 	ldrsh.w	r7, [sl, #112]	; 0x70
     eac:	9703      	str	r7, [sp, #12]
     eae:	fa1f fe8e 	uxth.w	lr, lr
     eb2:	fa0f f78e 	sxth.w	r7, lr
     eb6:	eb09 0406 	add.w	r4, r9, r6
     eba:	eb07 0847 	add.w	r8, r7, r7, lsl #1
     ebe:	f1ac 0c80 	sub.w	ip, ip, #128	; 0x80
     ec2:	7d24      	ldrb	r4, [r4, #20]
     ec4:	6359      	str	r1, [r3, #52]	; 0x34
     ec6:	fa1f fc8c 	uxth.w	ip, ip
     eca:	eb08 1808 	add.w	r8, r8, r8, lsl #4
     ece:	eb07 07c8 	add.w	r7, r7, r8, lsl #3
     ed2:	fa0f f88c 	sxth.w	r8, ip
     ed6:	f64f 799c 	movw	r9, #65436	; 0xff9c
     eda:	3c10      	subs	r4, #16
     edc:	eb08 18c8 	add.w	r8, r8, r8, lsl #7
     ee0:	b2a4      	uxth	r4, r4
     ee2:	fb1c fc09 	smulbb	ip, ip, r9
     ee6:	ea4f 0888 	mov.w	r8, r8, lsl #2
     eea:	fb14 cc00 	smlabb	ip, r4, r0, ip
     eee:	fb14 7700 	smlabb	r7, r4, r0, r7
     ef2:	fb14 8800 	smlabb	r8, r4, r0, r8
     ef6:	f64f 7430 	movw	r4, #65328	; 0xff30
     efa:	fb1e cc04 	smlabb	ip, lr, r4, ip
     efe:	f208 184d 	addw	r8, r8, #333	; 0x14d
     f02:	f207 174d 	addw	r7, r7, #333	; 0x14d
     f06:	f20c 1c4d 	addw	ip, ip, #333	; 0x14d
     f0a:	f8dd 900c 	ldr.w	r9, [sp, #12]
     f0e:	631a      	str	r2, [r3, #48]	; 0x30
     f10:	fa08 f402 	lsl.w	r4, r8, r2
     f14:	4097      	lsls	r7, r2
     f16:	fa0c fc02 	lsl.w	ip, ip, r2
     f1a:	f8cb 5034 	str.w	r5, [fp, #52]	; 0x34
     f1e:	f8cb 7030 	str.w	r7, [fp, #48]	; 0x30
     f22:	6359      	str	r1, [r3, #52]	; 0x34
     f24:	631a      	str	r2, [r3, #48]	; 0x30
     f26:	f8cb 5034 	str.w	r5, [fp, #52]	; 0x34
     f2a:	f8cb c030 	str.w	ip, [fp, #48]	; 0x30
     f2e:	6359      	str	r1, [r3, #52]	; 0x34
     f30:	631a      	str	r2, [r3, #48]	; 0x30
     f32:	f8cb 5034 	str.w	r5, [fp, #52]	; 0x34
     f36:	f8cb 4030 	str.w	r4, [fp, #48]	; 0x30
     f3a:	240f      	movs	r4, #15
     f3c:	f8cb 5034 	str.w	r5, [fp, #52]	; 0x34
     f40:	f9ba e06e 	ldrsh.w	lr, [sl, #110]	; 0x6e
     f44:	635c      	str	r4, [r3, #52]	; 0x34
     f46:	44b1      	add	r9, r6
     f48:	2401      	movs	r4, #1
     f4a:	631c      	str	r4, [r3, #48]	; 0x30
     f4c:	eb06 080e 	add.w	r8, r6, lr
     f50:	f9ba 706c 	ldrsh.w	r7, [sl, #108]	; 0x6c
     f54:	f899 e014 	ldrb.w	lr, [r9, #20]
     f58:	f898 c014 	ldrb.w	ip, [r8, #20]
     f5c:	4437      	add	r7, r6
     f5e:	f1ae 0e80 	sub.w	lr, lr, #128	; 0x80
     f62:	fa1f fe8e 	uxth.w	lr, lr
     f66:	7d3c      	ldrb	r4, [r7, #20]
     f68:	6359      	str	r1, [r3, #52]	; 0x34
     f6a:	fa0f f78e 	sxth.w	r7, lr
     f6e:	eb07 0947 	add.w	r9, r7, r7, lsl #1
     f72:	eb09 1909 	add.w	r9, r9, r9, lsl #4
     f76:	f1ac 0c80 	sub.w	ip, ip, #128	; 0x80
     f7a:	f8cd 900c 	str.w	r9, [sp, #12]
     f7e:	fa1f fc8c 	uxth.w	ip, ip
     f82:	f64f 799c 	movw	r9, #65436	; 0xff9c
     f86:	fa0f f88c 	sxth.w	r8, ip
     f8a:	fb1c fc09 	smulbb	ip, ip, r9
     f8e:	f8dd 900c 	ldr.w	r9, [sp, #12]
     f92:	631a      	str	r2, [r3, #48]	; 0x30
     f94:	3c10      	subs	r4, #16
     f96:	eb08 18c8 	add.w	r8, r8, r8, lsl #7
     f9a:	b2a4      	uxth	r4, r4
     f9c:	eb07 07c9 	add.w	r7, r7, r9, lsl #3
     fa0:	ea4f 0888 	mov.w	r8, r8, lsl #2
     fa4:	fb14 cc00 	smlabb	ip, r4, r0, ip
     fa8:	fb14 7700 	smlabb	r7, r4, r0, r7
     fac:	fb14 8800 	smlabb	r8, r4, r0, r8
     fb0:	f64f 7430 	movw	r4, #65328	; 0xff30
     fb4:	fb1e cc04 	smlabb	ip, lr, r4, ip
     fb8:	f208 184d 	addw	r8, r8, #333	; 0x14d
     fbc:	f207 174d 	addw	r7, r7, #333	; 0x14d
     fc0:	f20c 1c4d 	addw	ip, ip, #333	; 0x14d
     fc4:	f9ba 9076 	ldrsh.w	r9, [sl, #118]	; 0x76
     fc8:	f8cb 5034 	str.w	r5, [fp, #52]	; 0x34
     fcc:	fa08 f402 	lsl.w	r4, r8, r2
     fd0:	4097      	lsls	r7, r2
     fd2:	fa0c fc02 	lsl.w	ip, ip, r2
     fd6:	f8cb 7030 	str.w	r7, [fp, #48]	; 0x30
     fda:	f9ba e074 	ldrsh.w	lr, [sl, #116]	; 0x74
     fde:	6359      	str	r1, [r3, #52]	; 0x34
     fe0:	f9ba 7072 	ldrsh.w	r7, [sl, #114]	; 0x72
     fe4:	631a      	str	r2, [r3, #48]	; 0x30
     fe6:	f8cb 5034 	str.w	r5, [fp, #52]	; 0x34
     fea:	f8cb c030 	str.w	ip, [fp, #48]	; 0x30
     fee:	6359      	str	r1, [r3, #52]	; 0x34
     ff0:	631a      	str	r2, [r3, #48]	; 0x30
     ff2:	f8cb 5034 	str.w	r5, [fp, #52]	; 0x34
     ff6:	f8cb 4030 	str.w	r4, [fp, #48]	; 0x30
     ffa:	240f      	movs	r4, #15
     ffc:	f8cb 5034 	str.w	r5, [fp, #52]	; 0x34
    1000:	44b1      	add	r9, r6
    1002:	635c      	str	r4, [r3, #52]	; 0x34
    1004:	2401      	movs	r4, #1
    1006:	631c      	str	r4, [r3, #48]	; 0x30
    1008:	eb06 080e 	add.w	r8, r6, lr
    100c:	f899 e014 	ldrb.w	lr, [r9, #20]
    1010:	f898 c014 	ldrb.w	ip, [r8, #20]
    1014:	4437      	add	r7, r6
    1016:	f1ae 0e80 	sub.w	lr, lr, #128	; 0x80
    101a:	fa1f fe8e 	uxth.w	lr, lr
    101e:	7d3c      	ldrb	r4, [r7, #20]
    1020:	6359      	str	r1, [r3, #52]	; 0x34
    1022:	fa0f f78e 	sxth.w	r7, lr
    1026:	eb07 0947 	add.w	r9, r7, r7, lsl #1
    102a:	eb09 1909 	add.w	r9, r9, r9, lsl #4
    102e:	f1ac 0c80 	sub.w	ip, ip, #128	; 0x80
    1032:	f8cd 900c 	str.w	r9, [sp, #12]
    1036:	fa1f fc8c 	uxth.w	ip, ip
    103a:	f64f 799c 	movw	r9, #65436	; 0xff9c
    103e:	fa0f f88c 	sxth.w	r8, ip
    1042:	3c10      	subs	r4, #16
    1044:	fb1c fc09 	smulbb	ip, ip, r9
    1048:	f8dd 900c 	ldr.w	r9, [sp, #12]
    104c:	631a      	str	r2, [r3, #48]	; 0x30
    104e:	b2a4      	uxth	r4, r4
    1050:	fb14 cc00 	smlabb	ip, r4, r0, ip
    1054:	eb07 07c9 	add.w	r7, r7, r9, lsl #3
    1058:	eb08 18c8 	add.w	r8, r8, r8, lsl #7
    105c:	f64f 7930 	movw	r9, #65328	; 0xff30
    1060:	fb14 7700 	smlabb	r7, r4, r0, r7
    1064:	fb1e cc09 	smlabb	ip, lr, r9, ip
    1068:	ea4f 0888 	mov.w	r8, r8, lsl #2
    106c:	fb14 8800 	smlabb	r8, r4, r0, r8
    1070:	f20c 1c4d 	addw	ip, ip, #333	; 0x14d
    1074:	f207 174d 	addw	r7, r7, #333	; 0x14d
    1078:	fa0c f402 	lsl.w	r4, ip, r2
    107c:	f9ba e07c 	ldrsh.w	lr, [sl, #124]	; 0x7c
    1080:	f8cb 5034 	str.w	r5, [fp, #52]	; 0x34
    1084:	4097      	lsls	r7, r2
    1086:	f208 184d 	addw	r8, r8, #333	; 0x14d
    108a:	f8cb 7030 	str.w	r7, [fp, #48]	; 0x30
    108e:	fa08 f802 	lsl.w	r8, r8, r2
    1092:	6359      	str	r1, [r3, #52]	; 0x34
    1094:	631a      	str	r2, [r3, #48]	; 0x30
    1096:	f8cb 5034 	str.w	r5, [fp, #52]	; 0x34
    109a:	f8cb 4030 	str.w	r4, [fp, #48]	; 0x30
    109e:	240f      	movs	r4, #15
    10a0:	6359      	str	r1, [r3, #52]	; 0x34
    10a2:	44b6      	add	lr, r6
    10a4:	631a      	str	r2, [r3, #48]	; 0x30
    10a6:	f8cb 5034 	str.w	r5, [fp, #52]	; 0x34
    10aa:	f8cb 8030 	str.w	r8, [fp, #48]	; 0x30
    10ae:	f8cb 5034 	str.w	r5, [fp, #52]	; 0x34
    10b2:	635c      	str	r4, [r3, #52]	; 0x34
    10b4:	2401      	movs	r4, #1
    10b6:	631c      	str	r4, [r3, #48]	; 0x30
    10b8:	f9ba 707a 	ldrsh.w	r7, [sl, #122]	; 0x7a
    10bc:	f89e e014 	ldrb.w	lr, [lr, #20]
    10c0:	f9ba 4078 	ldrsh.w	r4, [sl, #120]	; 0x78
    10c4:	f9ba 8082 	ldrsh.w	r8, [sl, #130]	; 0x82
    10c8:	f8cd 800c 	str.w	r8, [sp, #12]
    10cc:	4437      	add	r7, r6
    10ce:	f1ae 0e80 	sub.w	lr, lr, #128	; 0x80
    10d2:	f897 c014 	ldrb.w	ip, [r7, #20]
    10d6:	fa1f fe8e 	uxth.w	lr, lr
    10da:	fa0f f78e 	sxth.w	r7, lr
    10de:	4434      	add	r4, r6
    10e0:	eb07 0847 	add.w	r8, r7, r7, lsl #1
    10e4:	f1ac 0c80 	sub.w	ip, ip, #128	; 0x80
    10e8:	7d24      	ldrb	r4, [r4, #20]
    10ea:	6359      	str	r1, [r3, #52]	; 0x34
    10ec:	fa1f fc8c 	uxth.w	ip, ip
    10f0:	eb08 1808 	add.w	r8, r8, r8, lsl #4
    10f4:	eb07 07c8 	add.w	r7, r7, r8, lsl #3
    10f8:	fa0f f88c 	sxth.w	r8, ip
    10fc:	f64f 799c 	movw	r9, #65436	; 0xff9c
    1100:	3c10      	subs	r4, #16
    1102:	eb08 18c8 	add.w	r8, r8, r8, lsl #7
    1106:	b2a4      	uxth	r4, r4
    1108:	fb1c fc09 	smulbb	ip, ip, r9
    110c:	ea4f 0888 	mov.w	r8, r8, lsl #2
    1110:	fb14 cc00 	smlabb	ip, r4, r0, ip
    1114:	fb14 7700 	smlabb	r7, r4, r0, r7
    1118:	fb14 8800 	smlabb	r8, r4, r0, r8
    111c:	f64f 7430 	movw	r4, #65328	; 0xff30
    1120:	fb1e cc04 	smlabb	ip, lr, r4, ip
    1124:	f8dd 900c 	ldr.w	r9, [sp, #12]
    1128:	631a      	str	r2, [r3, #48]	; 0x30
    112a:	f208 184d 	addw	r8, r8, #333	; 0x14d
    112e:	f207 174d 	addw	r7, r7, #333	; 0x14d
    1132:	f20c 1c4d 	addw	ip, ip, #333	; 0x14d
    1136:	fa08 f402 	lsl.w	r4, r8, r2
    113a:	4097      	lsls	r7, r2
    113c:	fa0c fc02 	lsl.w	ip, ip, r2
    1140:	f8cb 5034 	str.w	r5, [fp, #52]	; 0x34
    1144:	44b1      	add	r9, r6
    1146:	f8cb 7030 	str.w	r7, [fp, #48]	; 0x30
    114a:	6359      	str	r1, [r3, #52]	; 0x34
    114c:	270f      	movs	r7, #15
    114e:	631a      	str	r2, [r3, #48]	; 0x30
    1150:	f8cb 5034 	str.w	r5, [fp, #52]	; 0x34
    1154:	f8cb c030 	str.w	ip, [fp, #48]	; 0x30
    1158:	6359      	str	r1, [r3, #52]	; 0x34
    115a:	631a      	str	r2, [r3, #48]	; 0x30
    115c:	f8cb 5034 	str.w	r5, [fp, #52]	; 0x34
    1160:	f8cb 4030 	str.w	r4, [fp, #48]	; 0x30
    1164:	2401      	movs	r4, #1
    1166:	f8cb 5034 	str.w	r5, [fp, #52]	; 0x34
    116a:	f9ba c080 	ldrsh.w	ip, [sl, #128]	; 0x80
    116e:	635f      	str	r7, [r3, #52]	; 0x34
    1170:	631c      	str	r4, [r3, #48]	; 0x30
    1172:	f899 e014 	ldrb.w	lr, [r9, #20]
    1176:	f9ba 407e 	ldrsh.w	r4, [sl, #126]	; 0x7e
    117a:	44b4      	add	ip, r6
    117c:	f1ae 0e80 	sub.w	lr, lr, #128	; 0x80
    1180:	4434      	add	r4, r6
    1182:	f89c c014 	ldrb.w	ip, [ip, #20]
    1186:	7d24      	ldrb	r4, [r4, #20]
    1188:	6359      	str	r1, [r3, #52]	; 0x34
    118a:	fa1f fe8e 	uxth.w	lr, lr
    118e:	fa0f f78e 	sxth.w	r7, lr
    1192:	eb07 0847 	add.w	r8, r7, r7, lsl #1
    1196:	f1ac 0c80 	sub.w	ip, ip, #128	; 0x80
    119a:	eb08 1808 	add.w	r8, r8, r8, lsl #4
    119e:	fa1f fc8c 	uxth.w	ip, ip
    11a2:	f64f 799c 	movw	r9, #65436	; 0xff9c
    11a6:	3c10      	subs	r4, #16
    11a8:	b2a4      	uxth	r4, r4
    11aa:	eb07 07c8 	add.w	r7, r7, r8, lsl #3
    11ae:	fa0f f88c 	sxth.w	r8, ip
    11b2:	fb1c fc09 	smulbb	ip, ip, r9
    11b6:	fb14 cc00 	smlabb	ip, r4, r0, ip
    11ba:	f64f 7930 	movw	r9, #65328	; 0xff30
    11be:	eb08 18c8 	add.w	r8, r8, r8, lsl #7
    11c2:	fb14 7700 	smlabb	r7, r4, r0, r7
    11c6:	fb1e ce09 	smlabb	lr, lr, r9, ip
    11ca:	ea4f 0888 	mov.w	r8, r8, lsl #2
    11ce:	fb14 8800 	smlabb	r8, r4, r0, r8
    11d2:	f20e 1e4d 	addw	lr, lr, #333	; 0x14d
    11d6:	f207 174d 	addw	r7, r7, #333	; 0x14d
    11da:	f9ba c088 	ldrsh.w	ip, [sl, #136]	; 0x88
    11de:	631a      	str	r2, [r3, #48]	; 0x30
    11e0:	fa0e f402 	lsl.w	r4, lr, r2
    11e4:	4097      	lsls	r7, r2
    11e6:	f208 184d 	addw	r8, r8, #333	; 0x14d
    11ea:	f8cb 5034 	str.w	r5, [fp, #52]	; 0x34
    11ee:	fa08 f802 	lsl.w	r8, r8, r2
    11f2:	f8cb 7030 	str.w	r7, [fp, #48]	; 0x30
    11f6:	6359      	str	r1, [r3, #52]	; 0x34
    11f8:	631a      	str	r2, [r3, #48]	; 0x30
    11fa:	f8cb 5034 	str.w	r5, [fp, #52]	; 0x34
    11fe:	f8cb 4030 	str.w	r4, [fp, #48]	; 0x30
    1202:	240f      	movs	r4, #15
    1204:	f9ba 9084 	ldrsh.w	r9, [sl, #132]	; 0x84
    1208:	f9ba 7086 	ldrsh.w	r7, [sl, #134]	; 0x86
    120c:	6359      	str	r1, [r3, #52]	; 0x34
    120e:	44b4      	add	ip, r6
    1210:	631a      	str	r2, [r3, #48]	; 0x30
    1212:	f8cb 5034 	str.w	r5, [fp, #52]	; 0x34
    1216:	f8cb 8030 	str.w	r8, [fp, #48]	; 0x30
    121a:	f8cb 5034 	str.w	r5, [fp, #52]	; 0x34
    121e:	635c      	str	r4, [r3, #52]	; 0x34
    1220:	2401      	movs	r4, #1
    1222:	631c      	str	r4, [r3, #48]	; 0x30
    1224:	f89c e014 	ldrb.w	lr, [ip, #20]
    1228:	4437      	add	r7, r6
    122a:	f1ae 0e80 	sub.w	lr, lr, #128	; 0x80
    122e:	f897 c014 	ldrb.w	ip, [r7, #20]
    1232:	f9ba 708e 	ldrsh.w	r7, [sl, #142]	; 0x8e
    1236:	9703      	str	r7, [sp, #12]
    1238:	fa1f fe8e 	uxth.w	lr, lr
    123c:	fa0f f78e 	sxth.w	r7, lr
    1240:	eb09 0406 	add.w	r4, r9, r6
    1244:	eb07 0847 	add.w	r8, r7, r7, lsl #1
    1248:	f1ac 0c80 	sub.w	ip, ip, #128	; 0x80
    124c:	7d24      	ldrb	r4, [r4, #20]
    124e:	6359      	str	r1, [r3, #52]	; 0x34
    1250:	fa1f fc8c 	uxth.w	ip, ip
    1254:	eb08 1808 	add.w	r8, r8, r8, lsl #4
    1258:	eb07 07c8 	add.w	r7, r7, r8, lsl #3
    125c:	fa0f f88c 	sxth.w	r8, ip
    1260:	f64f 799c 	movw	r9, #65436	; 0xff9c
    1264:	3c10      	subs	r4, #16
    1266:	eb08 18c8 	add.w	r8, r8, r8, lsl #7
    126a:	b2a4      	uxth	r4, r4
    126c:	fb1c fc09 	smulbb	ip, ip, r9
    1270:	ea4f 0888 	mov.w	r8, r8, lsl #2
    1274:	fb14 cc00 	smlabb	ip, r4, r0, ip
    1278:	fb14 7700 	smlabb	r7, r4, r0, r7
    127c:	fb14 8800 	smlabb	r8, r4, r0, r8
    1280:	f64f 7430 	movw	r4, #65328	; 0xff30
    1284:	fb1e cc04 	smlabb	ip, lr, r4, ip
    1288:	f208 184d 	addw	r8, r8, #333	; 0x14d
    128c:	f207 174d 	addw	r7, r7, #333	; 0x14d
    1290:	f20c 1c4d 	addw	ip, ip, #333	; 0x14d
    1294:	f8dd 900c 	ldr.w	r9, [sp, #12]
    1298:	631a      	str	r2, [r3, #48]	; 0x30
    129a:	fa08 f402 	lsl.w	r4, r8, r2
    129e:	4097      	lsls	r7, r2
    12a0:	fa0c fc02 	lsl.w	ip, ip, r2
    12a4:	f8cb 5034 	str.w	r5, [fp, #52]	; 0x34
    12a8:	f8cb 7030 	str.w	r7, [fp, #48]	; 0x30
    12ac:	6359      	str	r1, [r3, #52]	; 0x34
    12ae:	631a      	str	r2, [r3, #48]	; 0x30
    12b0:	f8cb 5034 	str.w	r5, [fp, #52]	; 0x34
    12b4:	f8cb c030 	str.w	ip, [fp, #48]	; 0x30
    12b8:	6359      	str	r1, [r3, #52]	; 0x34
    12ba:	631a      	str	r2, [r3, #48]	; 0x30
    12bc:	f8cb 5034 	str.w	r5, [fp, #52]	; 0x34
    12c0:	f8cb 4030 	str.w	r4, [fp, #48]	; 0x30
    12c4:	240f      	movs	r4, #15
    12c6:	f8cb 5034 	str.w	r5, [fp, #52]	; 0x34
    12ca:	f9ba e08c 	ldrsh.w	lr, [sl, #140]	; 0x8c
    12ce:	635c      	str	r4, [r3, #52]	; 0x34
    12d0:	44b1      	add	r9, r6
    12d2:	2401      	movs	r4, #1
    12d4:	631c      	str	r4, [r3, #48]	; 0x30
    12d6:	eb06 080e 	add.w	r8, r6, lr
    12da:	f9ba 708a 	ldrsh.w	r7, [sl, #138]	; 0x8a
    12de:	f899 e014 	ldrb.w	lr, [r9, #20]
    12e2:	f898 c014 	ldrb.w	ip, [r8, #20]
    12e6:	4437      	add	r7, r6
    12e8:	f1ae 0e80 	sub.w	lr, lr, #128	; 0x80
    12ec:	fa1f fe8e 	uxth.w	lr, lr
    12f0:	7d3c      	ldrb	r4, [r7, #20]
    12f2:	6359      	str	r1, [r3, #52]	; 0x34
    12f4:	fa0f f78e 	sxth.w	r7, lr
    12f8:	eb07 0947 	add.w	r9, r7, r7, lsl #1
    12fc:	eb09 1909 	add.w	r9, r9, r9, lsl #4
    1300:	f1ac 0c80 	sub.w	ip, ip, #128	; 0x80
    1304:	f8cd 900c 	str.w	r9, [sp, #12]
    1308:	fa1f fc8c 	uxth.w	ip, ip
    130c:	f64f 799c 	movw	r9, #65436	; 0xff9c
    1310:	fa0f f88c 	sxth.w	r8, ip
    1314:	fb1c fc09 	smulbb	ip, ip, r9
    1318:	f8dd 900c 	ldr.w	r9, [sp, #12]
    131c:	3c10      	subs	r4, #16
    131e:	eb08 18c8 	add.w	r8, r8, r8, lsl #7
    1322:	b2a4      	uxth	r4, r4
    1324:	eb07 07c9 	add.w	r7, r7, r9, lsl #3
    1328:	ea4f 0888 	mov.w	r8, r8, lsl #2
    132c:	fb14 cc00 	smlabb	ip, r4, r0, ip
    1330:	fb14 7700 	smlabb	r7, r4, r0, r7
    1334:	fb14 8800 	smlabb	r8, r4, r0, r8
    1338:	f64f 7430 	movw	r4, #65328	; 0xff30
    133c:	fb1e cc04 	smlabb	ip, lr, r4, ip
    1340:	f208 184d 	addw	r8, r8, #333	; 0x14d
    1344:	f207 174d 	addw	r7, r7, #333	; 0x14d
    1348:	f20c 1c4d 	addw	ip, ip, #333	; 0x14d
    134c:	f9ba 9094 	ldrsh.w	r9, [sl, #148]	; 0x94
    1350:	f9ba e092 	ldrsh.w	lr, [sl, #146]	; 0x92
    1354:	631a      	str	r2, [r3, #48]	; 0x30
    1356:	fa08 f402 	lsl.w	r4, r8, r2
    135a:	4097      	lsls	r7, r2
    135c:	fa0c fc02 	lsl.w	ip, ip, r2
    1360:	f8cb 5034 	str.w	r5, [fp, #52]	; 0x34
    1364:	f8cb 7030 	str.w	r7, [fp, #48]	; 0x30
    1368:	6359      	str	r1, [r3, #52]	; 0x34
    136a:	631a      	str	r2, [r3, #48]	; 0x30
    136c:	f8cb 5034 	str.w	r5, [fp, #52]	; 0x34
    1370:	f8cb c030 	str.w	ip, [fp, #48]	; 0x30
    1374:	6359      	str	r1, [r3, #52]	; 0x34
    1376:	631a      	str	r2, [r3, #48]	; 0x30
    1378:	f8cb 5034 	str.w	r5, [fp, #52]	; 0x34
    137c:	f8cb 4030 	str.w	r4, [fp, #48]	; 0x30
    1380:	240f      	movs	r4, #15
    1382:	f8cb 5034 	str.w	r5, [fp, #52]	; 0x34
    1386:	44b1      	add	r9, r6
    1388:	635c      	str	r4, [r3, #52]	; 0x34
    138a:	2401      	movs	r4, #1
    138c:	631c      	str	r4, [r3, #48]	; 0x30
    138e:	eb06 080e 	add.w	r8, r6, lr
    1392:	f9ba 7090 	ldrsh.w	r7, [sl, #144]	; 0x90
    1396:	f899 e014 	ldrb.w	lr, [r9, #20]
    139a:	f898 c014 	ldrb.w	ip, [r8, #20]
    139e:	4437      	add	r7, r6
    13a0:	f1ae 0e80 	sub.w	lr, lr, #128	; 0x80
    13a4:	fa1f fe8e 	uxth.w	lr, lr
    13a8:	7d3c      	ldrb	r4, [r7, #20]
    13aa:	6359      	str	r1, [r3, #52]	; 0x34
    13ac:	fa0f f78e 	sxth.w	r7, lr
    13b0:	eb07 0947 	add.w	r9, r7, r7, lsl #1
    13b4:	eb09 1909 	add.w	r9, r9, r9, lsl #4
    13b8:	f1ac 0c80 	sub.w	ip, ip, #128	; 0x80
    13bc:	f8cd 900c 	str.w	r9, [sp, #12]
    13c0:	fa1f fc8c 	uxth.w	ip, ip
    13c4:	f64f 799c 	movw	r9, #65436	; 0xff9c
    13c8:	fa0f f88c 	sxth.w	r8, ip
    13cc:	3c10      	subs	r4, #16
    13ce:	fb1c fc09 	smulbb	ip, ip, r9
    13d2:	f8dd 900c 	ldr.w	r9, [sp, #12]
    13d6:	631a      	str	r2, [r3, #48]	; 0x30
    13d8:	b2a4      	uxth	r4, r4
    13da:	fb14 cc00 	smlabb	ip, r4, r0, ip
    13de:	eb07 07c9 	add.w	r7, r7, r9, lsl #3
    13e2:	eb08 18c8 	add.w	r8, r8, r8, lsl #7
    13e6:	f64f 7930 	movw	r9, #65328	; 0xff30
    13ea:	fb14 7700 	smlabb	r7, r4, r0, r7
    13ee:	fb1e cc09 	smlabb	ip, lr, r9, ip
    13f2:	ea4f 0888 	mov.w	r8, r8, lsl #2
    13f6:	fb14 8800 	smlabb	r8, r4, r0, r8
    13fa:	f9ba e09a 	ldrsh.w	lr, [sl, #154]	; 0x9a
    13fe:	f8cb 5034 	str.w	r5, [fp, #52]	; 0x34
    1402:	f20c 1c4d 	addw	ip, ip, #333	; 0x14d
    1406:	f207 174d 	addw	r7, r7, #333	; 0x14d
    140a:	fa0c f402 	lsl.w	r4, ip, r2
    140e:	4097      	lsls	r7, r2
    1410:	f208 184d 	addw	r8, r8, #333	; 0x14d
    1414:	f8cb 7030 	str.w	r7, [fp, #48]	; 0x30
    1418:	fa08 f802 	lsl.w	r8, r8, r2
    141c:	6359      	str	r1, [r3, #52]	; 0x34
    141e:	44b6      	add	lr, r6
    1420:	631a      	str	r2, [r3, #48]	; 0x30
    1422:	f8cb 5034 	str.w	r5, [fp, #52]	; 0x34
    1426:	f8cb 4030 	str.w	r4, [fp, #48]	; 0x30
    142a:	240f      	movs	r4, #15
    142c:	6359      	str	r1, [r3, #52]	; 0x34
    142e:	f9ba 7098 	ldrsh.w	r7, [sl, #152]	; 0x98
    1432:	631a      	str	r2, [r3, #48]	; 0x30
    1434:	f8cb 5034 	str.w	r5, [fp, #52]	; 0x34
    1438:	f8cb 8030 	str.w	r8, [fp, #48]	; 0x30
    143c:	f8cb 5034 	str.w	r5, [fp, #52]	; 0x34
    1440:	635c      	str	r4, [r3, #52]	; 0x34
    1442:	2401      	movs	r4, #1
    1444:	631c      	str	r4, [r3, #48]	; 0x30
    1446:	f89e e014 	ldrb.w	lr, [lr, #20]
    144a:	f9ba 4096 	ldrsh.w	r4, [sl, #150]	; 0x96
    144e:	f9ba 80a0 	ldrsh.w	r8, [sl, #160]	; 0xa0
    1452:	f8cd 800c 	str.w	r8, [sp, #12]
    1456:	4437      	add	r7, r6
    1458:	f1ae 0e80 	sub.w	lr, lr, #128	; 0x80
    145c:	f897 c014 	ldrb.w	ip, [r7, #20]
    1460:	fa1f fe8e 	uxth.w	lr, lr
    1464:	fa0f f78e 	sxth.w	r7, lr
    1468:	4434      	add	r4, r6
    146a:	eb07 0847 	add.w	r8, r7, r7, lsl #1
    146e:	f1ac 0c80 	sub.w	ip, ip, #128	; 0x80
    1472:	7d24      	ldrb	r4, [r4, #20]
    1474:	6359      	str	r1, [r3, #52]	; 0x34
    1476:	fa1f fc8c 	uxth.w	ip, ip
    147a:	eb08 1808 	add.w	r8, r8, r8, lsl #4
    147e:	eb07 07c8 	add.w	r7, r7, r8, lsl #3
    1482:	fa0f f88c 	sxth.w	r8, ip
    1486:	f64f 799c 	movw	r9, #65436	; 0xff9c
    148a:	3c10      	subs	r4, #16
    148c:	eb08 18c8 	add.w	r8, r8, r8, lsl #7
    1490:	b2a4      	uxth	r4, r4
    1492:	fb1c fc09 	smulbb	ip, ip, r9
    1496:	ea4f 0888 	mov.w	r8, r8, lsl #2
    149a:	fb14 cc00 	smlabb	ip, r4, r0, ip
    149e:	fb14 7700 	smlabb	r7, r4, r0, r7
    14a2:	fb14 8800 	smlabb	r8, r4, r0, r8
    14a6:	f64f 7430 	movw	r4, #65328	; 0xff30
    14aa:	fb1e cc04 	smlabb	ip, lr, r4, ip
    14ae:	f8dd 900c 	ldr.w	r9, [sp, #12]
    14b2:	631a      	str	r2, [r3, #48]	; 0x30
    14b4:	f208 184d 	addw	r8, r8, #333	; 0x14d
    14b8:	f207 174d 	addw	r7, r7, #333	; 0x14d
    14bc:	f20c 1c4d 	addw	ip, ip, #333	; 0x14d
    14c0:	fa08 f402 	lsl.w	r4, r8, r2
    14c4:	4097      	lsls	r7, r2
    14c6:	fa0c fc02 	lsl.w	ip, ip, r2
    14ca:	f8cb 5034 	str.w	r5, [fp, #52]	; 0x34
    14ce:	44b1      	add	r9, r6
    14d0:	f8cb 7030 	str.w	r7, [fp, #48]	; 0x30
    14d4:	6359      	str	r1, [r3, #52]	; 0x34
    14d6:	270f      	movs	r7, #15
    14d8:	631a      	str	r2, [r3, #48]	; 0x30
    14da:	f8cb 5034 	str.w	r5, [fp, #52]	; 0x34
    14de:	f8cb c030 	str.w	ip, [fp, #48]	; 0x30
    14e2:	6359      	str	r1, [r3, #52]	; 0x34
    14e4:	631a      	str	r2, [r3, #48]	; 0x30
    14e6:	f8cb 5034 	str.w	r5, [fp, #52]	; 0x34
    14ea:	f8cb 4030 	str.w	r4, [fp, #48]	; 0x30
    14ee:	2401      	movs	r4, #1
    14f0:	f8cb 5034 	str.w	r5, [fp, #52]	; 0x34
    14f4:	f9ba c09e 	ldrsh.w	ip, [sl, #158]	; 0x9e
    14f8:	635f      	str	r7, [r3, #52]	; 0x34
    14fa:	631c      	str	r4, [r3, #48]	; 0x30
    14fc:	f899 e014 	ldrb.w	lr, [r9, #20]
    1500:	f9ba 409c 	ldrsh.w	r4, [sl, #156]	; 0x9c
    1504:	44b4      	add	ip, r6
    1506:	f1ae 0e80 	sub.w	lr, lr, #128	; 0x80
    150a:	4434      	add	r4, r6
    150c:	f89c c014 	ldrb.w	ip, [ip, #20]
    1510:	7d24      	ldrb	r4, [r4, #20]
    1512:	6359      	str	r1, [r3, #52]	; 0x34
    1514:	fa1f fe8e 	uxth.w	lr, lr
    1518:	fa0f f78e 	sxth.w	r7, lr
    151c:	eb07 0847 	add.w	r8, r7, r7, lsl #1
    1520:	f1ac 0c80 	sub.w	ip, ip, #128	; 0x80
    1524:	eb08 1808 	add.w	r8, r8, r8, lsl #4
    1528:	fa1f fc8c 	uxth.w	ip, ip
    152c:	f64f 799c 	movw	r9, #65436	; 0xff9c
    1530:	3c10      	subs	r4, #16
    1532:	b2a4      	uxth	r4, r4
    1534:	eb07 07c8 	add.w	r7, r7, r8, lsl #3
    1538:	fa0f f88c 	sxth.w	r8, ip
    153c:	fb1c fc09 	smulbb	ip, ip, r9
    1540:	fb14 cc00 	smlabb	ip, r4, r0, ip
    1544:	f64f 7930 	movw	r9, #65328	; 0xff30
    1548:	eb08 18c8 	add.w	r8, r8, r8, lsl #7
    154c:	fb14 7700 	smlabb	r7, r4, r0, r7
    1550:	fb1e ce09 	smlabb	lr, lr, r9, ip
    1554:	ea4f 0888 	mov.w	r8, r8, lsl #2
    1558:	fb14 8800 	smlabb	r8, r4, r0, r8
    155c:	f20e 1e4d 	addw	lr, lr, #333	; 0x14d
    1560:	f207 174d 	addw	r7, r7, #333	; 0x14d
    1564:	f9ba c0a6 	ldrsh.w	ip, [sl, #166]	; 0xa6
    1568:	631a      	str	r2, [r3, #48]	; 0x30
    156a:	fa0e f402 	lsl.w	r4, lr, r2
    156e:	4097      	lsls	r7, r2
    1570:	f208 184d 	addw	r8, r8, #333	; 0x14d
    1574:	f8cb 5034 	str.w	r5, [fp, #52]	; 0x34
    1578:	fa08 f802 	lsl.w	r8, r8, r2
    157c:	f8cb 7030 	str.w	r7, [fp, #48]	; 0x30
    1580:	f9ba 70a4 	ldrsh.w	r7, [sl, #164]	; 0xa4
    1584:	6359      	str	r1, [r3, #52]	; 0x34
    1586:	631a      	str	r2, [r3, #48]	; 0x30
    1588:	f8cb 5034 	str.w	r5, [fp, #52]	; 0x34
    158c:	f8cb 4030 	str.w	r4, [fp, #48]	; 0x30
    1590:	240f      	movs	r4, #15
    1592:	6359      	str	r1, [r3, #52]	; 0x34
    1594:	44b4      	add	ip, r6
    1596:	631a      	str	r2, [r3, #48]	; 0x30
    1598:	f8cb 5034 	str.w	r5, [fp, #52]	; 0x34
    159c:	f8cb 8030 	str.w	r8, [fp, #48]	; 0x30
    15a0:	f8cb 5034 	str.w	r5, [fp, #52]	; 0x34
    15a4:	635c      	str	r4, [r3, #52]	; 0x34
    15a6:	2401      	movs	r4, #1
    15a8:	631c      	str	r4, [r3, #48]	; 0x30
    15aa:	f89c e014 	ldrb.w	lr, [ip, #20]
    15ae:	f9ba 90a2 	ldrsh.w	r9, [sl, #162]	; 0xa2
    15b2:	4437      	add	r7, r6
    15b4:	f1ae 0e80 	sub.w	lr, lr, #128	; 0x80
    15b8:	f897 c014 	ldrb.w	ip, [r7, #20]
    15bc:	f9ba 70ac 	ldrsh.w	r7, [sl, #172]	; 0xac
    15c0:	9703      	str	r7, [sp, #12]
    15c2:	fa1f fe8e 	uxth.w	lr, lr
    15c6:	fa0f f78e 	sxth.w	r7, lr
    15ca:	eb09 0406 	add.w	r4, r9, r6
    15ce:	eb07 0847 	add.w	r8, r7, r7, lsl #1
    15d2:	f1ac 0c80 	sub.w	ip, ip, #128	; 0x80
    15d6:	7d24      	ldrb	r4, [r4, #20]
    15d8:	6359      	str	r1, [r3, #52]	; 0x34
    15da:	fa1f fc8c 	uxth.w	ip, ip
    15de:	eb08 1808 	add.w	r8, r8, r8, lsl #4
    15e2:	eb07 07c8 	add.w	r7, r7, r8, lsl #3
    15e6:	fa0f f88c 	sxth.w	r8, ip
    15ea:	f64f 799c 	movw	r9, #65436	; 0xff9c
    15ee:	3c10      	subs	r4, #16
    15f0:	eb08 18c8 	add.w	r8, r8, r8, lsl #7
    15f4:	b2a4      	uxth	r4, r4
    15f6:	fb1c fc09 	smulbb	ip, ip, r9
    15fa:	ea4f 0888 	mov.w	r8, r8, lsl #2
    15fe:	fb14 cc00 	smlabb	ip, r4, r0, ip
    1602:	fb14 7700 	smlabb	r7, r4, r0, r7
    1606:	fb14 8800 	smlabb	r8, r4, r0, r8
    160a:	f64f 7430 	movw	r4, #65328	; 0xff30
    160e:	fb1e cc04 	smlabb	ip, lr, r4, ip
    1612:	f208 184d 	addw	r8, r8, #333	; 0x14d
    1616:	f207 174d 	addw	r7, r7, #333	; 0x14d
    161a:	f20c 1c4d 	addw	ip, ip, #333	; 0x14d
    161e:	f8dd 900c 	ldr.w	r9, [sp, #12]
    1622:	631a      	str	r2, [r3, #48]	; 0x30
    1624:	fa08 f402 	lsl.w	r4, r8, r2
    1628:	4097      	lsls	r7, r2
    162a:	fa0c fc02 	lsl.w	ip, ip, r2
    162e:	f8cb 5034 	str.w	r5, [fp, #52]	; 0x34
    1632:	f8cb 7030 	str.w	r7, [fp, #48]	; 0x30
    1636:	6359      	str	r1, [r3, #52]	; 0x34
    1638:	631a      	str	r2, [r3, #48]	; 0x30
    163a:	f8cb 5034 	str.w	r5, [fp, #52]	; 0x34
    163e:	f8cb c030 	str.w	ip, [fp, #48]	; 0x30
    1642:	6359      	str	r1, [r3, #52]	; 0x34
    1644:	631a      	str	r2, [r3, #48]	; 0x30
    1646:	f8cb 5034 	str.w	r5, [fp, #52]	; 0x34
    164a:	f8cb 4030 	str.w	r4, [fp, #48]	; 0x30
    164e:	240f      	movs	r4, #15
    1650:	f8cb 5034 	str.w	r5, [fp, #52]	; 0x34
    1654:	f9ba e0aa 	ldrsh.w	lr, [sl, #170]	; 0xaa
    1658:	635c      	str	r4, [r3, #52]	; 0x34
    165a:	44b1      	add	r9, r6
    165c:	2401      	movs	r4, #1
    165e:	631c      	str	r4, [r3, #48]	; 0x30
    1660:	eb06 080e 	add.w	r8, r6, lr
    1664:	f9ba 70a8 	ldrsh.w	r7, [sl, #168]	; 0xa8
    1668:	f899 e014 	ldrb.w	lr, [r9, #20]
    166c:	f898 c014 	ldrb.w	ip, [r8, #20]
    1670:	4437      	add	r7, r6
    1672:	f1ae 0e80 	sub.w	lr, lr, #128	; 0x80
    1676:	fa1f fe8e 	uxth.w	lr, lr
    167a:	7d3c      	ldrb	r4, [r7, #20]
    167c:	6359      	str	r1, [r3, #52]	; 0x34
    167e:	fa0f f78e 	sxth.w	r7, lr
    1682:	eb07 0947 	add.w	r9, r7, r7, lsl #1
    1686:	eb09 1909 	add.w	r9, r9, r9, lsl #4
    168a:	f1ac 0c80 	sub.w	ip, ip, #128	; 0x80
    168e:	f8cd 900c 	str.w	r9, [sp, #12]
    1692:	fa1f fc8c 	uxth.w	ip, ip
    1696:	f64f 799c 	movw	r9, #65436	; 0xff9c
    169a:	fa0f f88c 	sxth.w	r8, ip
    169e:	fb1c fc09 	smulbb	ip, ip, r9
    16a2:	f8dd 900c 	ldr.w	r9, [sp, #12]
    16a6:	631a      	str	r2, [r3, #48]	; 0x30
    16a8:	3c10      	subs	r4, #16
    16aa:	eb08 18c8 	add.w	r8, r8, r8, lsl #7
    16ae:	b2a4      	uxth	r4, r4
    16b0:	eb07 07c9 	add.w	r7, r7, r9, lsl #3
    16b4:	ea4f 0888 	mov.w	r8, r8, lsl #2
    16b8:	fb14 cc00 	smlabb	ip, r4, r0, ip
    16bc:	fb14 7700 	smlabb	r7, r4, r0, r7
    16c0:	fb14 8800 	smlabb	r8, r4, r0, r8
    16c4:	f64f 7430 	movw	r4, #65328	; 0xff30
    16c8:	fb1e cc04 	smlabb	ip, lr, r4, ip
    16cc:	f208 184d 	addw	r8, r8, #333	; 0x14d
    16d0:	f207 174d 	addw	r7, r7, #333	; 0x14d
    16d4:	f20c 1c4d 	addw	ip, ip, #333	; 0x14d
    16d8:	f9ba 90b2 	ldrsh.w	r9, [sl, #178]	; 0xb2
    16dc:	f8cb 5034 	str.w	r5, [fp, #52]	; 0x34
    16e0:	fa08 f402 	lsl.w	r4, r8, r2
    16e4:	4097      	lsls	r7, r2
    16e6:	fa0c fc02 	lsl.w	ip, ip, r2
    16ea:	f8cb 7030 	str.w	r7, [fp, #48]	; 0x30
    16ee:	6359      	str	r1, [r3, #52]	; 0x34
    16f0:	631a      	str	r2, [r3, #48]	; 0x30
    16f2:	f8cb 5034 	str.w	r5, [fp, #52]	; 0x34
    16f6:	f8cb c030 	str.w	ip, [fp, #48]	; 0x30
    16fa:	6359      	str	r1, [r3, #52]	; 0x34
    16fc:	631a      	str	r2, [r3, #48]	; 0x30
    16fe:	f8cb 5034 	str.w	r5, [fp, #52]	; 0x34
    1702:	f8cb 4030 	str.w	r4, [fp, #48]	; 0x30
    1706:	240f      	movs	r4, #15
    1708:	f8cb 5034 	str.w	r5, [fp, #52]	; 0x34
    170c:	f9ba e0b0 	ldrsh.w	lr, [sl, #176]	; 0xb0
    1710:	635c      	str	r4, [r3, #52]	; 0x34
    1712:	44b1      	add	r9, r6
    1714:	2401      	movs	r4, #1
    1716:	631c      	str	r4, [r3, #48]	; 0x30
    1718:	eb06 080e 	add.w	r8, r6, lr
    171c:	f9ba 70ae 	ldrsh.w	r7, [sl, #174]	; 0xae
    1720:	f899 e014 	ldrb.w	lr, [r9, #20]
    1724:	f898 c014 	ldrb.w	ip, [r8, #20]
    1728:	4437      	add	r7, r6
    172a:	f1ae 0e80 	sub.w	lr, lr, #128	; 0x80
    172e:	fa1f fe8e 	uxth.w	lr, lr
    1732:	7d3c      	ldrb	r4, [r7, #20]
    1734:	6359      	str	r1, [r3, #52]	; 0x34
    1736:	fa0f f78e 	sxth.w	r7, lr
    173a:	eb07 0947 	add.w	r9, r7, r7, lsl #1
    173e:	eb09 1909 	add.w	r9, r9, r9, lsl #4
    1742:	f1ac 0c80 	sub.w	ip, ip, #128	; 0x80
    1746:	f8cd 900c 	str.w	r9, [sp, #12]
    174a:	fa1f fc8c 	uxth.w	ip, ip
    174e:	f64f 799c 	movw	r9, #65436	; 0xff9c
    1752:	fa0f f88c 	sxth.w	r8, ip
    1756:	3c10      	subs	r4, #16
    1758:	fb1c fc09 	smulbb	ip, ip, r9
    175c:	f8dd 900c 	ldr.w	r9, [sp, #12]
    1760:	631a      	str	r2, [r3, #48]	; 0x30
    1762:	b2a4      	uxth	r4, r4
    1764:	fb14 cc00 	smlabb	ip, r4, r0, ip
    1768:	eb07 07c9 	add.w	r7, r7, r9, lsl #3
    176c:	f64f 7930 	movw	r9, #65328	; 0xff30
    1770:	fb14 7700 	smlabb	r7, r4, r0, r7
    1774:	fb1e cc09 	smlabb	ip, lr, r9, ip
    1778:	eb08 18c8 	add.w	r8, r8, r8, lsl #7
    177c:	f20c 1c4d 	addw	ip, ip, #333	; 0x14d
    1780:	ea4f 0888 	mov.w	r8, r8, lsl #2
    1784:	f207 174d 	addw	r7, r7, #333	; 0x14d
    1788:	fb14 8800 	smlabb	r8, r4, r0, r8
    178c:	4097      	lsls	r7, r2
    178e:	fa0c f402 	lsl.w	r4, ip, r2
    1792:	f8cb 5034 	str.w	r5, [fp, #52]	; 0x34
    1796:	f208 184d 	addw	r8, r8, #333	; 0x14d
    179a:	f8cb 7030 	str.w	r7, [fp, #48]	; 0x30
    179e:	6359      	str	r1, [r3, #52]	; 0x34
    17a0:	631a      	str	r2, [r3, #48]	; 0x30
    17a2:	f8cb 5034 	str.w	r5, [fp, #52]	; 0x34
    17a6:	f8cb 4030 	str.w	r4, [fp, #48]	; 0x30
    17aa:	6359      	str	r1, [r3, #52]	; 0x34
    17ac:	631a      	str	r2, [r3, #48]	; 0x30
    17ae:	f9ba e0b8 	ldrsh.w	lr, [sl, #184]	; 0xb8
    17b2:	f8cb 5034 	str.w	r5, [fp, #52]	; 0x34
    17b6:	fa08 f802 	lsl.w	r8, r8, r2
    17ba:	240f      	movs	r4, #15
    17bc:	f8cb 8030 	str.w	r8, [fp, #48]	; 0x30
    17c0:	44b6      	add	lr, r6
    17c2:	f8cb 5034 	str.w	r5, [fp, #52]	; 0x34
    17c6:	635c      	str	r4, [r3, #52]	; 0x34
    17c8:	2401      	movs	r4, #1
    17ca:	631c      	str	r4, [r3, #48]	; 0x30
    17cc:	f9ba 70b6 	ldrsh.w	r7, [sl, #182]	; 0xb6
    17d0:	f89e e014 	ldrb.w	lr, [lr, #20]
    17d4:	f9ba 40b4 	ldrsh.w	r4, [sl, #180]	; 0xb4
    17d8:	f9ba 80be 	ldrsh.w	r8, [sl, #190]	; 0xbe
    17dc:	f8cd 800c 	str.w	r8, [sp, #12]
    17e0:	4437      	add	r7, r6
    17e2:	f1ae 0e80 	sub.w	lr, lr, #128	; 0x80
    17e6:	f897 c014 	ldrb.w	ip, [r7, #20]
    17ea:	fa1f fe8e 	uxth.w	lr, lr
    17ee:	fa0f f78e 	sxth.w	r7, lr
    17f2:	4434      	add	r4, r6
    17f4:	eb07 0847 	add.w	r8, r7, r7, lsl #1
    17f8:	f1ac 0c80 	sub.w	ip, ip, #128	; 0x80
    17fc:	7d24      	ldrb	r4, [r4, #20]
    17fe:	6359      	str	r1, [r3, #52]	; 0x34
    1800:	fa1f fc8c 	uxth.w	ip, ip
    1804:	eb08 1808 	add.w	r8, r8, r8, lsl #4
    1808:	eb07 07c8 	add.w	r7, r7, r8, lsl #3
    180c:	fa0f f88c 	sxth.w	r8, ip
    1810:	f64f 799c 	movw	r9, #65436	; 0xff9c
    1814:	3c10      	subs	r4, #16
    1816:	eb08 18c8 	add.w	r8, r8, r8, lsl #7
    181a:	b2a4      	uxth	r4, r4
    181c:	fb1c fc09 	smulbb	ip, ip, r9
    1820:	ea4f 0888 	mov.w	r8, r8, lsl #2
    1824:	fb14 cc00 	smlabb	ip, r4, r0, ip
    1828:	fb14 7700 	smlabb	r7, r4, r0, r7
    182c:	fb14 8800 	smlabb	r8, r4, r0, r8
    1830:	f64f 7430 	movw	r4, #65328	; 0xff30
    1834:	fb1e cc04 	smlabb	ip, lr, r4, ip
    1838:	f8dd 900c 	ldr.w	r9, [sp, #12]
    183c:	631a      	str	r2, [r3, #48]	; 0x30
    183e:	f208 184d 	addw	r8, r8, #333	; 0x14d
    1842:	f207 174d 	addw	r7, r7, #333	; 0x14d
    1846:	f20c 1c4d 	addw	ip, ip, #333	; 0x14d
    184a:	fa08 f402 	lsl.w	r4, r8, r2
    184e:	4097      	lsls	r7, r2
    1850:	fa0c fc02 	lsl.w	ip, ip, r2
    1854:	f8cb 5034 	str.w	r5, [fp, #52]	; 0x34
    1858:	44b1      	add	r9, r6
    185a:	f8cb 7030 	str.w	r7, [fp, #48]	; 0x30
    185e:	6359      	str	r1, [r3, #52]	; 0x34
    1860:	270f      	movs	r7, #15
    1862:	631a      	str	r2, [r3, #48]	; 0x30
    1864:	f8cb 5034 	str.w	r5, [fp, #52]	; 0x34
    1868:	f8cb c030 	str.w	ip, [fp, #48]	; 0x30
    186c:	6359      	str	r1, [r3, #52]	; 0x34
    186e:	631a      	str	r2, [r3, #48]	; 0x30
    1870:	f8cb 5034 	str.w	r5, [fp, #52]	; 0x34
    1874:	f8cb 4030 	str.w	r4, [fp, #48]	; 0x30
    1878:	2401      	movs	r4, #1
    187a:	f8cb 5034 	str.w	r5, [fp, #52]	; 0x34
    187e:	f9ba c0bc 	ldrsh.w	ip, [sl, #188]	; 0xbc
    1882:	635f      	str	r7, [r3, #52]	; 0x34
    1884:	631c      	str	r4, [r3, #48]	; 0x30
    1886:	f899 e014 	ldrb.w	lr, [r9, #20]
    188a:	f9ba 40ba 	ldrsh.w	r4, [sl, #186]	; 0xba
    188e:	44b4      	add	ip, r6
    1890:	f1ae 0e80 	sub.w	lr, lr, #128	; 0x80
    1894:	4434      	add	r4, r6
    1896:	fa1f fe8e 	uxth.w	lr, lr
    189a:	f89c c014 	ldrb.w	ip, [ip, #20]
    189e:	7d24      	ldrb	r4, [r4, #20]
    18a0:	6359      	str	r1, [r3, #52]	; 0x34
    18a2:	fa0f f78e 	sxth.w	r7, lr
    18a6:	eb07 0847 	add.w	r8, r7, r7, lsl #1
    18aa:	f1ac 0c80 	sub.w	ip, ip, #128	; 0x80
    18ae:	eb08 1808 	add.w	r8, r8, r8, lsl #4
    18b2:	fa1f fc8c 	uxth.w	ip, ip
    18b6:	f64f 799c 	movw	r9, #65436	; 0xff9c
    18ba:	3c10      	subs	r4, #16
    18bc:	b2a4      	uxth	r4, r4
    18be:	eb07 07c8 	add.w	r7, r7, r8, lsl #3
    18c2:	fa0f f88c 	sxth.w	r8, ip
    18c6:	fb1c fc09 	smulbb	ip, ip, r9
    18ca:	fb14 cc00 	smlabb	ip, r4, r0, ip
    18ce:	f64f 7930 	movw	r9, #65328	; 0xff30
    18d2:	eb08 18c8 	add.w	r8, r8, r8, lsl #7
    18d6:	fb14 7700 	smlabb	r7, r4, r0, r7
    18da:	fb1e ce09 	smlabb	lr, lr, r9, ip
    18de:	ea4f 0888 	mov.w	r8, r8, lsl #2
    18e2:	fb14 8800 	smlabb	r8, r4, r0, r8
    18e6:	f20e 1e4d 	addw	lr, lr, #333	; 0x14d
    18ea:	f207 174d 	addw	r7, r7, #333	; 0x14d
    18ee:	f9ba c0c4 	ldrsh.w	ip, [sl, #196]	; 0xc4
    18f2:	631a      	str	r2, [r3, #48]	; 0x30
    18f4:	fa0e f402 	lsl.w	r4, lr, r2
    18f8:	4097      	lsls	r7, r2
    18fa:	f208 184d 	addw	r8, r8, #333	; 0x14d
    18fe:	f8cb 5034 	str.w	r5, [fp, #52]	; 0x34
    1902:	fa08 f802 	lsl.w	r8, r8, r2
    1906:	f8cb 7030 	str.w	r7, [fp, #48]	; 0x30
    190a:	6359      	str	r1, [r3, #52]	; 0x34
    190c:	631a      	str	r2, [r3, #48]	; 0x30
    190e:	f8cb 5034 	str.w	r5, [fp, #52]	; 0x34
    1912:	f8cb 4030 	str.w	r4, [fp, #48]	; 0x30
    1916:	240f      	movs	r4, #15
    1918:	6359      	str	r1, [r3, #52]	; 0x34
    191a:	44b4      	add	ip, r6
    191c:	631a      	str	r2, [r3, #48]	; 0x30
    191e:	f8cb 5034 	str.w	r5, [fp, #52]	; 0x34
    1922:	f8cb 8030 	str.w	r8, [fp, #48]	; 0x30
    1926:	f8cb 5034 	str.w	r5, [fp, #52]	; 0x34
    192a:	635c      	str	r4, [r3, #52]	; 0x34
    192c:	2401      	movs	r4, #1
    192e:	631c      	str	r4, [r3, #48]	; 0x30
    1930:	f9ba 70c2 	ldrsh.w	r7, [sl, #194]	; 0xc2
    1934:	f89c e014 	ldrb.w	lr, [ip, #20]
    1938:	f9ba 90c0 	ldrsh.w	r9, [sl, #192]	; 0xc0
    193c:	4437      	add	r7, r6
    193e:	f1ae 0e80 	sub.w	lr, lr, #128	; 0x80
    1942:	f897 c014 	ldrb.w	ip, [r7, #20]
    1946:	f9ba 70ca 	ldrsh.w	r7, [sl, #202]	; 0xca
    194a:	9703      	str	r7, [sp, #12]
    194c:	fa1f fe8e 	uxth.w	lr, lr
    1950:	fa0f f78e 	sxth.w	r7, lr
    1954:	eb09 0406 	add.w	r4, r9, r6
    1958:	eb07 0847 	add.w	r8, r7, r7, lsl #1
    195c:	f1ac 0c80 	sub.w	ip, ip, #128	; 0x80
    1960:	7d24      	ldrb	r4, [r4, #20]
    1962:	6359      	str	r1, [r3, #52]	; 0x34
    1964:	fa1f fc8c 	uxth.w	ip, ip
    1968:	eb08 1808 	add.w	r8, r8, r8, lsl #4
    196c:	eb07 07c8 	add.w	r7, r7, r8, lsl #3
    1970:	fa0f f88c 	sxth.w	r8, ip
    1974:	f64f 799c 	movw	r9, #65436	; 0xff9c
    1978:	3c10      	subs	r4, #16
    197a:	eb08 18c8 	add.w	r8, r8, r8, lsl #7
    197e:	b2a4      	uxth	r4, r4
    1980:	fb1c fc09 	smulbb	ip, ip, r9
    1984:	ea4f 0888 	mov.w	r8, r8, lsl #2
    1988:	fb14 cc00 	smlabb	ip, r4, r0, ip
    198c:	fb14 7700 	smlabb	r7, r4, r0, r7
    1990:	fb14 8800 	smlabb	r8, r4, r0, r8
    1994:	f64f 7430 	movw	r4, #65328	; 0xff30
    1998:	fb1e cc04 	smlabb	ip, lr, r4, ip
    199c:	f208 184d 	addw	r8, r8, #333	; 0x14d
    19a0:	f207 174d 	addw	r7, r7, #333	; 0x14d
    19a4:	f20c 1c4d 	addw	ip, ip, #333	; 0x14d
    19a8:	f8dd 900c 	ldr.w	r9, [sp, #12]
    19ac:	631a      	str	r2, [r3, #48]	; 0x30
    19ae:	fa08 f402 	lsl.w	r4, r8, r2
    19b2:	4097      	lsls	r7, r2
    19b4:	fa0c fc02 	lsl.w	ip, ip, r2
    19b8:	f8cb 5034 	str.w	r5, [fp, #52]	; 0x34
    19bc:	f9ba e0c8 	ldrsh.w	lr, [sl, #200]	; 0xc8
    19c0:	f8cb 7030 	str.w	r7, [fp, #48]	; 0x30
    19c4:	6359      	str	r1, [r3, #52]	; 0x34
    19c6:	f9ba 70c6 	ldrsh.w	r7, [sl, #198]	; 0xc6
    19ca:	631a      	str	r2, [r3, #48]	; 0x30
    19cc:	f8cb 5034 	str.w	r5, [fp, #52]	; 0x34
    19d0:	f8cb c030 	str.w	ip, [fp, #48]	; 0x30
    19d4:	6359      	str	r1, [r3, #52]	; 0x34
    19d6:	631a      	str	r2, [r3, #48]	; 0x30
    19d8:	f8cb 5034 	str.w	r5, [fp, #52]	; 0x34
    19dc:	f8cb 4030 	str.w	r4, [fp, #48]	; 0x30
    19e0:	240f      	movs	r4, #15
    19e2:	f8cb 5034 	str.w	r5, [fp, #52]	; 0x34
    19e6:	44b1      	add	r9, r6
    19e8:	635c      	str	r4, [r3, #52]	; 0x34
    19ea:	2401      	movs	r4, #1
    19ec:	631c      	str	r4, [r3, #48]	; 0x30
    19ee:	eb06 080e 	add.w	r8, r6, lr
    19f2:	f899 e014 	ldrb.w	lr, [r9, #20]
    19f6:	f898 c014 	ldrb.w	ip, [r8, #20]
    19fa:	4437      	add	r7, r6
    19fc:	f1ae 0e80 	sub.w	lr, lr, #128	; 0x80
    1a00:	fa1f fe8e 	uxth.w	lr, lr
    1a04:	7d3c      	ldrb	r4, [r7, #20]
    1a06:	6359      	str	r1, [r3, #52]	; 0x34
    1a08:	fa0f f78e 	sxth.w	r7, lr
    1a0c:	eb07 0947 	add.w	r9, r7, r7, lsl #1
    1a10:	eb09 1909 	add.w	r9, r9, r9, lsl #4
    1a14:	f1ac 0c80 	sub.w	ip, ip, #128	; 0x80
    1a18:	f8cd 900c 	str.w	r9, [sp, #12]
    1a1c:	fa1f fc8c 	uxth.w	ip, ip
    1a20:	f64f 799c 	movw	r9, #65436	; 0xff9c
    1a24:	fa0f f88c 	sxth.w	r8, ip
    1a28:	fb1c fc09 	smulbb	ip, ip, r9
    1a2c:	f8dd 900c 	ldr.w	r9, [sp, #12]
    1a30:	631a      	str	r2, [r3, #48]	; 0x30
    1a32:	3c10      	subs	r4, #16
    1a34:	eb08 18c8 	add.w	r8, r8, r8, lsl #7
    1a38:	b2a4      	uxth	r4, r4
    1a3a:	eb07 07c9 	add.w	r7, r7, r9, lsl #3
    1a3e:	ea4f 0888 	mov.w	r8, r8, lsl #2
    1a42:	fb14 cc00 	smlabb	ip, r4, r0, ip
    1a46:	fb14 7700 	smlabb	r7, r4, r0, r7
    1a4a:	fb14 8800 	smlabb	r8, r4, r0, r8
    1a4e:	f64f 7430 	movw	r4, #65328	; 0xff30
    1a52:	fb1e cc04 	smlabb	ip, lr, r4, ip
    1a56:	f208 184d 	addw	r8, r8, #333	; 0x14d
    1a5a:	f207 174d 	addw	r7, r7, #333	; 0x14d
    1a5e:	f20c 1c4d 	addw	ip, ip, #333	; 0x14d
    1a62:	f9ba 90d0 	ldrsh.w	r9, [sl, #208]	; 0xd0
    1a66:	f8cb 5034 	str.w	r5, [fp, #52]	; 0x34
    1a6a:	fa08 f402 	lsl.w	r4, r8, r2
    1a6e:	4097      	lsls	r7, r2
    1a70:	fa0c fc02 	lsl.w	ip, ip, r2
    1a74:	f8cb 7030 	str.w	r7, [fp, #48]	; 0x30
    1a78:	6359      	str	r1, [r3, #52]	; 0x34
    1a7a:	631a      	str	r2, [r3, #48]	; 0x30
    1a7c:	f8cb 5034 	str.w	r5, [fp, #52]	; 0x34
    1a80:	f8cb c030 	str.w	ip, [fp, #48]	; 0x30
    1a84:	6359      	str	r1, [r3, #52]	; 0x34
    1a86:	631a      	str	r2, [r3, #48]	; 0x30
    1a88:	f8cb 5034 	str.w	r5, [fp, #52]	; 0x34
    1a8c:	f8cb 4030 	str.w	r4, [fp, #48]	; 0x30
    1a90:	240f      	movs	r4, #15
    1a92:	f8cb 5034 	str.w	r5, [fp, #52]	; 0x34
    1a96:	f9ba e0ce 	ldrsh.w	lr, [sl, #206]	; 0xce
    1a9a:	635c      	str	r4, [r3, #52]	; 0x34
    1a9c:	44b1      	add	r9, r6
    1a9e:	2401      	movs	r4, #1
    1aa0:	631c      	str	r4, [r3, #48]	; 0x30
    1aa2:	eb06 080e 	add.w	r8, r6, lr
    1aa6:	f9ba 70cc 	ldrsh.w	r7, [sl, #204]	; 0xcc
    1aaa:	f899 e014 	ldrb.w	lr, [r9, #20]
    1aae:	f898 c014 	ldrb.w	ip, [r8, #20]
    1ab2:	4437      	add	r7, r6
    1ab4:	f1ae 0e80 	sub.w	lr, lr, #128	; 0x80
    1ab8:	fa1f fe8e 	uxth.w	lr, lr
    1abc:	7d3c      	ldrb	r4, [r7, #20]
    1abe:	6359      	str	r1, [r3, #52]	; 0x34
    1ac0:	fa0f f78e 	sxth.w	r7, lr
    1ac4:	eb07 0947 	add.w	r9, r7, r7, lsl #1
    1ac8:	eb09 1909 	add.w	r9, r9, r9, lsl #4
    1acc:	f1ac 0c80 	sub.w	ip, ip, #128	; 0x80
    1ad0:	f8cd 900c 	str.w	r9, [sp, #12]
    1ad4:	fa1f fc8c 	uxth.w	ip, ip
    1ad8:	f64f 799c 	movw	r9, #65436	; 0xff9c
    1adc:	fa0f f88c 	sxth.w	r8, ip
    1ae0:	3c10      	subs	r4, #16
    1ae2:	fb1c fc09 	smulbb	ip, ip, r9
    1ae6:	f8dd 900c 	ldr.w	r9, [sp, #12]
    1aea:	631a      	str	r2, [r3, #48]	; 0x30
    1aec:	b2a4      	uxth	r4, r4
    1aee:	fb14 cc00 	smlabb	ip, r4, r0, ip
    1af2:	eb07 07c9 	add.w	r7, r7, r9, lsl #3
    1af6:	eb08 18c8 	add.w	r8, r8, r8, lsl #7
    1afa:	f64f 7930 	movw	r9, #65328	; 0xff30
    1afe:	fb14 7700 	smlabb	r7, r4, r0, r7
    1b02:	fb1e cc09 	smlabb	ip, lr, r9, ip
    1b06:	ea4f 0888 	mov.w	r8, r8, lsl #2
    1b0a:	fb14 8800 	smlabb	r8, r4, r0, r8
    1b0e:	f20c 1c4d 	addw	ip, ip, #333	; 0x14d
    1b12:	f207 174d 	addw	r7, r7, #333	; 0x14d
    1b16:	fa0c f402 	lsl.w	r4, ip, r2
    1b1a:	f9ba e0d6 	ldrsh.w	lr, [sl, #214]	; 0xd6
    1b1e:	f8cb 5034 	str.w	r5, [fp, #52]	; 0x34
    1b22:	4097      	lsls	r7, r2
    1b24:	f208 184d 	addw	r8, r8, #333	; 0x14d
    1b28:	f8cb 7030 	str.w	r7, [fp, #48]	; 0x30
    1b2c:	fa08 f802 	lsl.w	r8, r8, r2
    1b30:	6359      	str	r1, [r3, #52]	; 0x34
    1b32:	631a      	str	r2, [r3, #48]	; 0x30
    1b34:	f8cb 5034 	str.w	r5, [fp, #52]	; 0x34
    1b38:	f8cb 4030 	str.w	r4, [fp, #48]	; 0x30
    1b3c:	240f      	movs	r4, #15
    1b3e:	6359      	str	r1, [r3, #52]	; 0x34
    1b40:	44b6      	add	lr, r6
    1b42:	631a      	str	r2, [r3, #48]	; 0x30
    1b44:	f8cb 5034 	str.w	r5, [fp, #52]	; 0x34
    1b48:	f8cb 8030 	str.w	r8, [fp, #48]	; 0x30
    1b4c:	f8cb 5034 	str.w	r5, [fp, #52]	; 0x34
    1b50:	635c      	str	r4, [r3, #52]	; 0x34
    1b52:	2401      	movs	r4, #1
    1b54:	631c      	str	r4, [r3, #48]	; 0x30
    1b56:	f9ba 70d4 	ldrsh.w	r7, [sl, #212]	; 0xd4
    1b5a:	f89e e014 	ldrb.w	lr, [lr, #20]
    1b5e:	f9ba 40d2 	ldrsh.w	r4, [sl, #210]	; 0xd2
    1b62:	f9ba 80dc 	ldrsh.w	r8, [sl, #220]	; 0xdc
    1b66:	f8cd 800c 	str.w	r8, [sp, #12]
    1b6a:	4437      	add	r7, r6
    1b6c:	f1ae 0e80 	sub.w	lr, lr, #128	; 0x80
    1b70:	f897 c014 	ldrb.w	ip, [r7, #20]
    1b74:	fa1f fe8e 	uxth.w	lr, lr
    1b78:	fa0f f78e 	sxth.w	r7, lr
    1b7c:	4434      	add	r4, r6
    1b7e:	eb07 0847 	add.w	r8, r7, r7, lsl #1
    1b82:	f1ac 0c80 	sub.w	ip, ip, #128	; 0x80
    1b86:	7d24      	ldrb	r4, [r4, #20]
    1b88:	6359      	str	r1, [r3, #52]	; 0x34
    1b8a:	fa1f fc8c 	uxth.w	ip, ip
    1b8e:	eb08 1808 	add.w	r8, r8, r8, lsl #4
    1b92:	eb07 07c8 	add.w	r7, r7, r8, lsl #3
    1b96:	fa0f f88c 	sxth.w	r8, ip
    1b9a:	f64f 799c 	movw	r9, #65436	; 0xff9c
    1b9e:	3c10      	subs	r4, #16
    1ba0:	eb08 18c8 	add.w	r8, r8, r8, lsl #7
    1ba4:	b2a4      	uxth	r4, r4
    1ba6:	fb1c fc09 	smulbb	ip, ip, r9
    1baa:	ea4f 0888 	mov.w	r8, r8, lsl #2
    1bae:	fb14 cc00 	smlabb	ip, r4, r0, ip
    1bb2:	fb14 7700 	smlabb	r7, r4, r0, r7
    1bb6:	fb14 8800 	smlabb	r8, r4, r0, r8
    1bba:	f64f 7430 	movw	r4, #65328	; 0xff30
    1bbe:	fb1e cc04 	smlabb	ip, lr, r4, ip
    1bc2:	f8dd 900c 	ldr.w	r9, [sp, #12]
    1bc6:	631a      	str	r2, [r3, #48]	; 0x30
    1bc8:	f208 184d 	addw	r8, r8, #333	; 0x14d
    1bcc:	f207 174d 	addw	r7, r7, #333	; 0x14d
    1bd0:	f20c 1c4d 	addw	ip, ip, #333	; 0x14d
    1bd4:	fa08 f402 	lsl.w	r4, r8, r2
    1bd8:	4097      	lsls	r7, r2
    1bda:	fa0c fc02 	lsl.w	ip, ip, r2
    1bde:	f8cb 5034 	str.w	r5, [fp, #52]	; 0x34
    1be2:	44b1      	add	r9, r6
    1be4:	f8cb 7030 	str.w	r7, [fp, #48]	; 0x30
    1be8:	6359      	str	r1, [r3, #52]	; 0x34
    1bea:	270f      	movs	r7, #15
    1bec:	631a      	str	r2, [r3, #48]	; 0x30
    1bee:	f8cb 5034 	str.w	r5, [fp, #52]	; 0x34
    1bf2:	f8cb c030 	str.w	ip, [fp, #48]	; 0x30
    1bf6:	6359      	str	r1, [r3, #52]	; 0x34
    1bf8:	631a      	str	r2, [r3, #48]	; 0x30
    1bfa:	f8cb 5034 	str.w	r5, [fp, #52]	; 0x34
    1bfe:	f8cb 4030 	str.w	r4, [fp, #48]	; 0x30
    1c02:	2401      	movs	r4, #1
    1c04:	f8cb 5034 	str.w	r5, [fp, #52]	; 0x34
    1c08:	f9ba c0da 	ldrsh.w	ip, [sl, #218]	; 0xda
    1c0c:	635f      	str	r7, [r3, #52]	; 0x34
    1c0e:	631c      	str	r4, [r3, #48]	; 0x30
    1c10:	f899 e014 	ldrb.w	lr, [r9, #20]
    1c14:	f9ba 40d8 	ldrsh.w	r4, [sl, #216]	; 0xd8
    1c18:	44b4      	add	ip, r6
    1c1a:	f1ae 0e80 	sub.w	lr, lr, #128	; 0x80
    1c1e:	4434      	add	r4, r6
    1c20:	f89c c014 	ldrb.w	ip, [ip, #20]
    1c24:	7d24      	ldrb	r4, [r4, #20]
    1c26:	6359      	str	r1, [r3, #52]	; 0x34
    1c28:	fa1f fe8e 	uxth.w	lr, lr
    1c2c:	fa0f f78e 	sxth.w	r7, lr
    1c30:	eb07 0847 	add.w	r8, r7, r7, lsl #1
    1c34:	f1ac 0c80 	sub.w	ip, ip, #128	; 0x80
    1c38:	eb08 1808 	add.w	r8, r8, r8, lsl #4
    1c3c:	fa1f fc8c 	uxth.w	ip, ip
    1c40:	f64f 799c 	movw	r9, #65436	; 0xff9c
    1c44:	3c10      	subs	r4, #16
    1c46:	b2a4      	uxth	r4, r4
    1c48:	eb07 07c8 	add.w	r7, r7, r8, lsl #3
    1c4c:	fa0f f88c 	sxth.w	r8, ip
    1c50:	fb1c fc09 	smulbb	ip, ip, r9
    1c54:	fb14 cc00 	smlabb	ip, r4, r0, ip
    1c58:	f64f 7930 	movw	r9, #65328	; 0xff30
    1c5c:	eb08 18c8 	add.w	r8, r8, r8, lsl #7
    1c60:	fb14 7700 	smlabb	r7, r4, r0, r7
    1c64:	fb1e ce09 	smlabb	lr, lr, r9, ip
    1c68:	ea4f 0888 	mov.w	r8, r8, lsl #2
    1c6c:	fb14 8800 	smlabb	r8, r4, r0, r8
    1c70:	f20e 1e4d 	addw	lr, lr, #333	; 0x14d
    1c74:	f207 174d 	addw	r7, r7, #333	; 0x14d
    1c78:	f9ba c0e2 	ldrsh.w	ip, [sl, #226]	; 0xe2
    1c7c:	631a      	str	r2, [r3, #48]	; 0x30
    1c7e:	fa0e f402 	lsl.w	r4, lr, r2
    1c82:	4097      	lsls	r7, r2
    1c84:	f208 184d 	addw	r8, r8, #333	; 0x14d
    1c88:	f8cb 5034 	str.w	r5, [fp, #52]	; 0x34
    1c8c:	fa08 f802 	lsl.w	r8, r8, r2
    1c90:	f8cb 7030 	str.w	r7, [fp, #48]	; 0x30
    1c94:	6359      	str	r1, [r3, #52]	; 0x34
    1c96:	631a      	str	r2, [r3, #48]	; 0x30
    1c98:	f8cb 5034 	str.w	r5, [fp, #52]	; 0x34
    1c9c:	f8cb 4030 	str.w	r4, [fp, #48]	; 0x30
    1ca0:	240f      	movs	r4, #15
    1ca2:	6359      	str	r1, [r3, #52]	; 0x34
    1ca4:	44b4      	add	ip, r6
    1ca6:	631a      	str	r2, [r3, #48]	; 0x30
    1ca8:	f8cb 5034 	str.w	r5, [fp, #52]	; 0x34
    1cac:	f8cb 8030 	str.w	r8, [fp, #48]	; 0x30
    1cb0:	f8cb 5034 	str.w	r5, [fp, #52]	; 0x34
    1cb4:	635c      	str	r4, [r3, #52]	; 0x34
    1cb6:	2401      	movs	r4, #1
    1cb8:	631c      	str	r4, [r3, #48]	; 0x30
    1cba:	f9ba 70e0 	ldrsh.w	r7, [sl, #224]	; 0xe0
    1cbe:	f89c e014 	ldrb.w	lr, [ip, #20]
    1cc2:	f9ba 90de 	ldrsh.w	r9, [sl, #222]	; 0xde
    1cc6:	4437      	add	r7, r6
    1cc8:	f1ae 0e80 	sub.w	lr, lr, #128	; 0x80
    1ccc:	f897 c014 	ldrb.w	ip, [r7, #20]
    1cd0:	f9ba 70e8 	ldrsh.w	r7, [sl, #232]	; 0xe8
    1cd4:	9703      	str	r7, [sp, #12]
    1cd6:	fa1f fe8e 	uxth.w	lr, lr
    1cda:	fa0f f78e 	sxth.w	r7, lr
    1cde:	eb09 0406 	add.w	r4, r9, r6
    1ce2:	eb07 0847 	add.w	r8, r7, r7, lsl #1
    1ce6:	f1ac 0c80 	sub.w	ip, ip, #128	; 0x80
    1cea:	7d24      	ldrb	r4, [r4, #20]
    1cec:	6359      	str	r1, [r3, #52]	; 0x34
    1cee:	fa1f fc8c 	uxth.w	ip, ip
    1cf2:	eb08 1808 	add.w	r8, r8, r8, lsl #4
    1cf6:	eb07 07c8 	add.w	r7, r7, r8, lsl #3
    1cfa:	fa0f f88c 	sxth.w	r8, ip
    1cfe:	f64f 799c 	movw	r9, #65436	; 0xff9c
    1d02:	3c10      	subs	r4, #16
    1d04:	eb08 18c8 	add.w	r8, r8, r8, lsl #7
    1d08:	b2a4      	uxth	r4, r4
    1d0a:	fb1c fc09 	smulbb	ip, ip, r9
    1d0e:	ea4f 0888 	mov.w	r8, r8, lsl #2
    1d12:	fb14 cc00 	smlabb	ip, r4, r0, ip
    1d16:	fb14 7700 	smlabb	r7, r4, r0, r7
    1d1a:	fb14 8800 	smlabb	r8, r4, r0, r8
    1d1e:	f64f 7430 	movw	r4, #65328	; 0xff30
    1d22:	fb1e cc04 	smlabb	ip, lr, r4, ip
    1d26:	f208 184d 	addw	r8, r8, #333	; 0x14d
    1d2a:	f207 174d 	addw	r7, r7, #333	; 0x14d
    1d2e:	f20c 1c4d 	addw	ip, ip, #333	; 0x14d
    1d32:	f8dd 900c 	ldr.w	r9, [sp, #12]
    1d36:	631a      	str	r2, [r3, #48]	; 0x30
    1d38:	fa08 f402 	lsl.w	r4, r8, r2
    1d3c:	4097      	lsls	r7, r2
    1d3e:	fa0c fc02 	lsl.w	ip, ip, r2
    1d42:	f8cb 5034 	str.w	r5, [fp, #52]	; 0x34
    1d46:	f8cb 7030 	str.w	r7, [fp, #48]	; 0x30
    1d4a:	6359      	str	r1, [r3, #52]	; 0x34
    1d4c:	631a      	str	r2, [r3, #48]	; 0x30
    1d4e:	f8cb 5034 	str.w	r5, [fp, #52]	; 0x34
    1d52:	f8cb c030 	str.w	ip, [fp, #48]	; 0x30
    1d56:	6359      	str	r1, [r3, #52]	; 0x34
    1d58:	631a      	str	r2, [r3, #48]	; 0x30
    1d5a:	f8cb 5034 	str.w	r5, [fp, #52]	; 0x34
    1d5e:	f8cb 4030 	str.w	r4, [fp, #48]	; 0x30
    1d62:	240f      	movs	r4, #15
    1d64:	f8cb 5034 	str.w	r5, [fp, #52]	; 0x34
    1d68:	f9ba e0e6 	ldrsh.w	lr, [sl, #230]	; 0xe6
    1d6c:	635c      	str	r4, [r3, #52]	; 0x34
    1d6e:	44b1      	add	r9, r6
    1d70:	2401      	movs	r4, #1
    1d72:	631c      	str	r4, [r3, #48]	; 0x30
    1d74:	eb06 080e 	add.w	r8, r6, lr
    1d78:	f9ba 70e4 	ldrsh.w	r7, [sl, #228]	; 0xe4
    1d7c:	f899 e014 	ldrb.w	lr, [r9, #20]
    1d80:	f898 c014 	ldrb.w	ip, [r8, #20]
    1d84:	4437      	add	r7, r6
    1d86:	f1ae 0e80 	sub.w	lr, lr, #128	; 0x80
    1d8a:	fa1f fe8e 	uxth.w	lr, lr
    1d8e:	7d3c      	ldrb	r4, [r7, #20]
    1d90:	6359      	str	r1, [r3, #52]	; 0x34
    1d92:	fa0f f78e 	sxth.w	r7, lr
    1d96:	eb07 0947 	add.w	r9, r7, r7, lsl #1
    1d9a:	eb09 1909 	add.w	r9, r9, r9, lsl #4
    1d9e:	f1ac 0c80 	sub.w	ip, ip, #128	; 0x80
    1da2:	f8cd 900c 	str.w	r9, [sp, #12]
    1da6:	fa1f fc8c 	uxth.w	ip, ip
    1daa:	f64f 799c 	movw	r9, #65436	; 0xff9c
    1dae:	fa0f f88c 	sxth.w	r8, ip
    1db2:	fb1c fc09 	smulbb	ip, ip, r9
    1db6:	f8dd 900c 	ldr.w	r9, [sp, #12]
    1dba:	631a      	str	r2, [r3, #48]	; 0x30
    1dbc:	3c10      	subs	r4, #16
    1dbe:	eb08 18c8 	add.w	r8, r8, r8, lsl #7
    1dc2:	b2a4      	uxth	r4, r4
    1dc4:	eb07 07c9 	add.w	r7, r7, r9, lsl #3
    1dc8:	ea4f 0888 	mov.w	r8, r8, lsl #2
    1dcc:	fb14 cc00 	smlabb	ip, r4, r0, ip
    1dd0:	fb14 7700 	smlabb	r7, r4, r0, r7
    1dd4:	fb14 8800 	smlabb	r8, r4, r0, r8
    1dd8:	f64f 7430 	movw	r4, #65328	; 0xff30
    1ddc:	fb1e cc04 	smlabb	ip, lr, r4, ip
    1de0:	f208 184d 	addw	r8, r8, #333	; 0x14d
    1de4:	f207 174d 	addw	r7, r7, #333	; 0x14d
    1de8:	f20c 1c4d 	addw	ip, ip, #333	; 0x14d
    1dec:	f9ba 90ee 	ldrsh.w	r9, [sl, #238]	; 0xee
    1df0:	f8cb 5034 	str.w	r5, [fp, #52]	; 0x34
    1df4:	fa08 f402 	lsl.w	r4, r8, r2
    1df8:	4097      	lsls	r7, r2
    1dfa:	fa0c fc02 	lsl.w	ip, ip, r2
    1dfe:	f8cb 7030 	str.w	r7, [fp, #48]	; 0x30
    1e02:	f9ba e0ec 	ldrsh.w	lr, [sl, #236]	; 0xec
    1e06:	6359      	str	r1, [r3, #52]	; 0x34
    1e08:	f9ba 70ea 	ldrsh.w	r7, [sl, #234]	; 0xea
    1e0c:	631a      	str	r2, [r3, #48]	; 0x30
    1e0e:	f8cb 5034 	str.w	r5, [fp, #52]	; 0x34
    1e12:	f8cb c030 	str.w	ip, [fp, #48]	; 0x30
    1e16:	6359      	str	r1, [r3, #52]	; 0x34
    1e18:	631a      	str	r2, [r3, #48]	; 0x30
    1e1a:	f8cb 5034 	str.w	r5, [fp, #52]	; 0x34
    1e1e:	f8cb 4030 	str.w	r4, [fp, #48]	; 0x30
    1e22:	240f      	movs	r4, #15
    1e24:	f8cb 5034 	str.w	r5, [fp, #52]	; 0x34
    1e28:	44b1      	add	r9, r6
    1e2a:	635c      	str	r4, [r3, #52]	; 0x34
    1e2c:	2401      	movs	r4, #1
    1e2e:	631c      	str	r4, [r3, #48]	; 0x30
    1e30:	eb06 080e 	add.w	r8, r6, lr
    1e34:	f899 e014 	ldrb.w	lr, [r9, #20]
    1e38:	f898 c014 	ldrb.w	ip, [r8, #20]
    1e3c:	4437      	add	r7, r6
    1e3e:	f1ae 0e80 	sub.w	lr, lr, #128	; 0x80
    1e42:	fa1f fe8e 	uxth.w	lr, lr
    1e46:	7d3c      	ldrb	r4, [r7, #20]
    1e48:	6359      	str	r1, [r3, #52]	; 0x34
    1e4a:	fa0f f78e 	sxth.w	r7, lr
    1e4e:	eb07 0947 	add.w	r9, r7, r7, lsl #1
    1e52:	eb09 1909 	add.w	r9, r9, r9, lsl #4
    1e56:	f1ac 0c80 	sub.w	ip, ip, #128	; 0x80
    1e5a:	f8cd 900c 	str.w	r9, [sp, #12]
    1e5e:	fa1f fc8c 	uxth.w	ip, ip
    1e62:	f64f 799c 	movw	r9, #65436	; 0xff9c
    1e66:	fa0f f88c 	sxth.w	r8, ip
    1e6a:	3c10      	subs	r4, #16
    1e6c:	fb1c fc09 	smulbb	ip, ip, r9
    1e70:	f8dd 900c 	ldr.w	r9, [sp, #12]
    1e74:	631a      	str	r2, [r3, #48]	; 0x30
    1e76:	b2a4      	uxth	r4, r4
    1e78:	fb14 cc00 	smlabb	ip, r4, r0, ip
    1e7c:	eb07 07c9 	add.w	r7, r7, r9, lsl #3
    1e80:	eb08 18c8 	add.w	r8, r8, r8, lsl #7
    1e84:	f64f 7930 	movw	r9, #65328	; 0xff30
    1e88:	fb14 7700 	smlabb	r7, r4, r0, r7
    1e8c:	fb1e cc09 	smlabb	ip, lr, r9, ip
    1e90:	ea4f 0888 	mov.w	r8, r8, lsl #2
    1e94:	fb14 8800 	smlabb	r8, r4, r0, r8
    1e98:	f20c 1c4d 	addw	ip, ip, #333	; 0x14d
    1e9c:	f207 174d 	addw	r7, r7, #333	; 0x14d
    1ea0:	fa0c f402 	lsl.w	r4, ip, r2
    1ea4:	f9ba e0f4 	ldrsh.w	lr, [sl, #244]	; 0xf4
    1ea8:	f8cb 5034 	str.w	r5, [fp, #52]	; 0x34
    1eac:	4097      	lsls	r7, r2
    1eae:	f208 184d 	addw	r8, r8, #333	; 0x14d
    1eb2:	f8cb 7030 	str.w	r7, [fp, #48]	; 0x30
    1eb6:	fa08 f802 	lsl.w	r8, r8, r2
    1eba:	6359      	str	r1, [r3, #52]	; 0x34
    1ebc:	631a      	str	r2, [r3, #48]	; 0x30
    1ebe:	f8cb 5034 	str.w	r5, [fp, #52]	; 0x34
    1ec2:	f8cb 4030 	str.w	r4, [fp, #48]	; 0x30
    1ec6:	240f      	movs	r4, #15
    1ec8:	6359      	str	r1, [r3, #52]	; 0x34
    1eca:	44b6      	add	lr, r6
    1ecc:	631a      	str	r2, [r3, #48]	; 0x30
    1ece:	f8cb 5034 	str.w	r5, [fp, #52]	; 0x34
    1ed2:	f8cb 8030 	str.w	r8, [fp, #48]	; 0x30
    1ed6:	f8cb 5034 	str.w	r5, [fp, #52]	; 0x34
    1eda:	635c      	str	r4, [r3, #52]	; 0x34
    1edc:	2401      	movs	r4, #1
    1ede:	631c      	str	r4, [r3, #48]	; 0x30
    1ee0:	f9ba 70f2 	ldrsh.w	r7, [sl, #242]	; 0xf2
    1ee4:	f89e e014 	ldrb.w	lr, [lr, #20]
    1ee8:	f9ba 40f0 	ldrsh.w	r4, [sl, #240]	; 0xf0
    1eec:	f9ba 80fa 	ldrsh.w	r8, [sl, #250]	; 0xfa
    1ef0:	f8cd 800c 	str.w	r8, [sp, #12]
    1ef4:	4437      	add	r7, r6
    1ef6:	f1ae 0e80 	sub.w	lr, lr, #128	; 0x80
    1efa:	f897 c014 	ldrb.w	ip, [r7, #20]
    1efe:	fa1f fe8e 	uxth.w	lr, lr
    1f02:	fa0f f78e 	sxth.w	r7, lr
    1f06:	4434      	add	r4, r6
    1f08:	eb07 0847 	add.w	r8, r7, r7, lsl #1
    1f0c:	f1ac 0c80 	sub.w	ip, ip, #128	; 0x80
    1f10:	7d24      	ldrb	r4, [r4, #20]
    1f12:	6359      	str	r1, [r3, #52]	; 0x34
    1f14:	fa1f fc8c 	uxth.w	ip, ip
    1f18:	eb08 1808 	add.w	r8, r8, r8, lsl #4
    1f1c:	eb07 07c8 	add.w	r7, r7, r8, lsl #3
    1f20:	fa0f f88c 	sxth.w	r8, ip
    1f24:	f64f 799c 	movw	r9, #65436	; 0xff9c
    1f28:	3c10      	subs	r4, #16
    1f2a:	eb08 18c8 	add.w	r8, r8, r8, lsl #7
    1f2e:	b2a4      	uxth	r4, r4
    1f30:	fb1c fc09 	smulbb	ip, ip, r9
    1f34:	ea4f 0888 	mov.w	r8, r8, lsl #2
    1f38:	fb14 cc00 	smlabb	ip, r4, r0, ip
    1f3c:	fb14 7700 	smlabb	r7, r4, r0, r7
    1f40:	fb14 8800 	smlabb	r8, r4, r0, r8
    1f44:	f64f 7430 	movw	r4, #65328	; 0xff30
    1f48:	fb1e cc04 	smlabb	ip, lr, r4, ip
    1f4c:	f8dd 900c 	ldr.w	r9, [sp, #12]
    1f50:	631a      	str	r2, [r3, #48]	; 0x30
    1f52:	f208 184d 	addw	r8, r8, #333	; 0x14d
    1f56:	f207 174d 	addw	r7, r7, #333	; 0x14d
    1f5a:	f20c 1c4d 	addw	ip, ip, #333	; 0x14d
    1f5e:	fa08 f402 	lsl.w	r4, r8, r2
    1f62:	4097      	lsls	r7, r2
    1f64:	fa0c fc02 	lsl.w	ip, ip, r2
    1f68:	f8cb 5034 	str.w	r5, [fp, #52]	; 0x34
    1f6c:	44b1      	add	r9, r6
    1f6e:	f8cb 7030 	str.w	r7, [fp, #48]	; 0x30
    1f72:	6359      	str	r1, [r3, #52]	; 0x34
    1f74:	270f      	movs	r7, #15
    1f76:	631a      	str	r2, [r3, #48]	; 0x30
    1f78:	f8cb 5034 	str.w	r5, [fp, #52]	; 0x34
    1f7c:	f8cb c030 	str.w	ip, [fp, #48]	; 0x30
    1f80:	6359      	str	r1, [r3, #52]	; 0x34
    1f82:	631a      	str	r2, [r3, #48]	; 0x30
    1f84:	f8cb 5034 	str.w	r5, [fp, #52]	; 0x34
    1f88:	f8cb 4030 	str.w	r4, [fp, #48]	; 0x30
    1f8c:	2401      	movs	r4, #1
    1f8e:	f8cb 5034 	str.w	r5, [fp, #52]	; 0x34
    1f92:	f9ba c0f8 	ldrsh.w	ip, [sl, #248]	; 0xf8
    1f96:	635f      	str	r7, [r3, #52]	; 0x34
    1f98:	631c      	str	r4, [r3, #48]	; 0x30
    1f9a:	f899 e014 	ldrb.w	lr, [r9, #20]
    1f9e:	f9ba 40f6 	ldrsh.w	r4, [sl, #246]	; 0xf6
    1fa2:	44b4      	add	ip, r6
    1fa4:	f1ae 0e80 	sub.w	lr, lr, #128	; 0x80
    1fa8:	4434      	add	r4, r6
    1faa:	f89c c014 	ldrb.w	ip, [ip, #20]
    1fae:	7d24      	ldrb	r4, [r4, #20]
    1fb0:	6359      	str	r1, [r3, #52]	; 0x34
    1fb2:	fa1f fe8e 	uxth.w	lr, lr
    1fb6:	fa0f f78e 	sxth.w	r7, lr
    1fba:	eb07 0847 	add.w	r8, r7, r7, lsl #1
    1fbe:	f1ac 0c80 	sub.w	ip, ip, #128	; 0x80
    1fc2:	eb08 1808 	add.w	r8, r8, r8, lsl #4
    1fc6:	fa1f fc8c 	uxth.w	ip, ip
    1fca:	f64f 799c 	movw	r9, #65436	; 0xff9c
    1fce:	3c10      	subs	r4, #16
    1fd0:	b2a4      	uxth	r4, r4
    1fd2:	eb07 07c8 	add.w	r7, r7, r8, lsl #3
    1fd6:	fa0f f88c 	sxth.w	r8, ip
    1fda:	fb1c fc09 	smulbb	ip, ip, r9
    1fde:	fb14 cc00 	smlabb	ip, r4, r0, ip
    1fe2:	f64f 7930 	movw	r9, #65328	; 0xff30
    1fe6:	eb08 18c8 	add.w	r8, r8, r8, lsl #7
    1fea:	fb14 7700 	smlabb	r7, r4, r0, r7
    1fee:	fb1e ce09 	smlabb	lr, lr, r9, ip
    1ff2:	ea4f 0888 	mov.w	r8, r8, lsl #2
    1ff6:	fb14 8800 	smlabb	r8, r4, r0, r8
    1ffa:	f20e 1e4d 	addw	lr, lr, #333	; 0x14d
    1ffe:	f207 174d 	addw	r7, r7, #333	; 0x14d
    2002:	f9ba c100 	ldrsh.w	ip, [sl, #256]	; 0x100
    2006:	631a      	str	r2, [r3, #48]	; 0x30
    2008:	fa0e f402 	lsl.w	r4, lr, r2
    200c:	4097      	lsls	r7, r2
    200e:	f208 184d 	addw	r8, r8, #333	; 0x14d
    2012:	f8cb 5034 	str.w	r5, [fp, #52]	; 0x34
    2016:	fa08 f802 	lsl.w	r8, r8, r2
    201a:	f8cb 7030 	str.w	r7, [fp, #48]	; 0x30
    201e:	6359      	str	r1, [r3, #52]	; 0x34
    2020:	631a      	str	r2, [r3, #48]	; 0x30
    2022:	f8cb 5034 	str.w	r5, [fp, #52]	; 0x34
    2026:	f8cb 4030 	str.w	r4, [fp, #48]	; 0x30
    202a:	240f      	movs	r4, #15
    202c:	f9ba 90fc 	ldrsh.w	r9, [sl, #252]	; 0xfc
    2030:	f9ba 70fe 	ldrsh.w	r7, [sl, #254]	; 0xfe
    2034:	6359      	str	r1, [r3, #52]	; 0x34
    2036:	44b4      	add	ip, r6
    2038:	631a      	str	r2, [r3, #48]	; 0x30
    203a:	f8cb 5034 	str.w	r5, [fp, #52]	; 0x34
    203e:	f8cb 8030 	str.w	r8, [fp, #48]	; 0x30
    2042:	f8cb 5034 	str.w	r5, [fp, #52]	; 0x34
    2046:	635c      	str	r4, [r3, #52]	; 0x34
    2048:	2401      	movs	r4, #1
    204a:	631c      	str	r4, [r3, #48]	; 0x30
    204c:	f89c e014 	ldrb.w	lr, [ip, #20]
    2050:	4437      	add	r7, r6
    2052:	f1ae 0e80 	sub.w	lr, lr, #128	; 0x80
    2056:	f897 c014 	ldrb.w	ip, [r7, #20]
    205a:	f9ba 7106 	ldrsh.w	r7, [sl, #262]	; 0x106
    205e:	9703      	str	r7, [sp, #12]
    2060:	fa1f fe8e 	uxth.w	lr, lr
    2064:	fa0f f78e 	sxth.w	r7, lr
    2068:	eb09 0406 	add.w	r4, r9, r6
    206c:	eb07 0847 	add.w	r8, r7, r7, lsl #1
    2070:	f1ac 0c80 	sub.w	ip, ip, #128	; 0x80
    2074:	7d24      	ldrb	r4, [r4, #20]
    2076:	6359      	str	r1, [r3, #52]	; 0x34
    2078:	fa1f fc8c 	uxth.w	ip, ip
    207c:	eb08 1808 	add.w	r8, r8, r8, lsl #4
    2080:	eb07 07c8 	add.w	r7, r7, r8, lsl #3
    2084:	fa0f f88c 	sxth.w	r8, ip
    2088:	f64f 799c 	movw	r9, #65436	; 0xff9c
    208c:	3c10      	subs	r4, #16
    208e:	eb08 18c8 	add.w	r8, r8, r8, lsl #7
    2092:	b2a4      	uxth	r4, r4
    2094:	fb1c fc09 	smulbb	ip, ip, r9
    2098:	ea4f 0888 	mov.w	r8, r8, lsl #2
    209c:	fb14 cc00 	smlabb	ip, r4, r0, ip
    20a0:	fb14 7700 	smlabb	r7, r4, r0, r7
    20a4:	fb14 8800 	smlabb	r8, r4, r0, r8
    20a8:	f64f 7430 	movw	r4, #65328	; 0xff30
    20ac:	fb1e cc04 	smlabb	ip, lr, r4, ip
    20b0:	f208 184d 	addw	r8, r8, #333	; 0x14d
    20b4:	f207 174d 	addw	r7, r7, #333	; 0x14d
    20b8:	f20c 1c4d 	addw	ip, ip, #333	; 0x14d
    20bc:	f8dd 900c 	ldr.w	r9, [sp, #12]
    20c0:	631a      	str	r2, [r3, #48]	; 0x30
    20c2:	fa08 f402 	lsl.w	r4, r8, r2
    20c6:	4097      	lsls	r7, r2
    20c8:	fa0c fc02 	lsl.w	ip, ip, r2
    20cc:	f8cb 5034 	str.w	r5, [fp, #52]	; 0x34
    20d0:	f8cb 7030 	str.w	r7, [fp, #48]	; 0x30
    20d4:	6359      	str	r1, [r3, #52]	; 0x34
    20d6:	631a      	str	r2, [r3, #48]	; 0x30
    20d8:	f8cb 5034 	str.w	r5, [fp, #52]	; 0x34
    20dc:	f8cb c030 	str.w	ip, [fp, #48]	; 0x30
    20e0:	6359      	str	r1, [r3, #52]	; 0x34
    20e2:	631a      	str	r2, [r3, #48]	; 0x30
    20e4:	f8cb 5034 	str.w	r5, [fp, #52]	; 0x34
    20e8:	f8cb 4030 	str.w	r4, [fp, #48]	; 0x30
    20ec:	240f      	movs	r4, #15
    20ee:	f8cb 5034 	str.w	r5, [fp, #52]	; 0x34
    20f2:	f9ba e104 	ldrsh.w	lr, [sl, #260]	; 0x104
    20f6:	635c      	str	r4, [r3, #52]	; 0x34
    20f8:	44b1      	add	r9, r6
    20fa:	2401      	movs	r4, #1
    20fc:	631c      	str	r4, [r3, #48]	; 0x30
    20fe:	eb06 080e 	add.w	r8, r6, lr
    2102:	f9ba 7102 	ldrsh.w	r7, [sl, #258]	; 0x102
    2106:	f899 e014 	ldrb.w	lr, [r9, #20]
    210a:	f898 c014 	ldrb.w	ip, [r8, #20]
    210e:	4437      	add	r7, r6
    2110:	f1ae 0e80 	sub.w	lr, lr, #128	; 0x80
    2114:	fa1f fe8e 	uxth.w	lr, lr
    2118:	7d3c      	ldrb	r4, [r7, #20]
    211a:	6359      	str	r1, [r3, #52]	; 0x34
    211c:	fa0f f78e 	sxth.w	r7, lr
    2120:	eb07 0947 	add.w	r9, r7, r7, lsl #1
    2124:	eb09 1909 	add.w	r9, r9, r9, lsl #4
    2128:	f1ac 0c80 	sub.w	ip, ip, #128	; 0x80
    212c:	f8cd 900c 	str.w	r9, [sp, #12]
    2130:	fa1f fc8c 	uxth.w	ip, ip
    2134:	f64f 799c 	movw	r9, #65436	; 0xff9c
    2138:	fa0f f88c 	sxth.w	r8, ip
    213c:	fb1c fc09 	smulbb	ip, ip, r9
    2140:	f8dd 900c 	ldr.w	r9, [sp, #12]
    2144:	3c10      	subs	r4, #16
    2146:	eb08 18c8 	add.w	r8, r8, r8, lsl #7
    214a:	b2a4      	uxth	r4, r4
    214c:	eb07 07c9 	add.w	r7, r7, r9, lsl #3
    2150:	ea4f 0888 	mov.w	r8, r8, lsl #2
    2154:	fb14 cc00 	smlabb	ip, r4, r0, ip
    2158:	fb14 7700 	smlabb	r7, r4, r0, r7
    215c:	fb14 8800 	smlabb	r8, r4, r0, r8
    2160:	f64f 7430 	movw	r4, #65328	; 0xff30
    2164:	fb1e cc04 	smlabb	ip, lr, r4, ip
    2168:	f208 184d 	addw	r8, r8, #333	; 0x14d
    216c:	f207 174d 	addw	r7, r7, #333	; 0x14d
    2170:	f20c 1c4d 	addw	ip, ip, #333	; 0x14d
    2174:	f9ba 910c 	ldrsh.w	r9, [sl, #268]	; 0x10c
    2178:	f9ba e10a 	ldrsh.w	lr, [sl, #266]	; 0x10a
    217c:	631a      	str	r2, [r3, #48]	; 0x30
    217e:	fa08 f402 	lsl.w	r4, r8, r2
    2182:	4097      	lsls	r7, r2
    2184:	fa0c fc02 	lsl.w	ip, ip, r2
    2188:	f8cb 5034 	str.w	r5, [fp, #52]	; 0x34
    218c:	f8cb 7030 	str.w	r7, [fp, #48]	; 0x30
    2190:	6359      	str	r1, [r3, #52]	; 0x34
    2192:	631a      	str	r2, [r3, #48]	; 0x30
    2194:	f8cb 5034 	str.w	r5, [fp, #52]	; 0x34
    2198:	f8cb c030 	str.w	ip, [fp, #48]	; 0x30
    219c:	6359      	str	r1, [r3, #52]	; 0x34
    219e:	631a      	str	r2, [r3, #48]	; 0x30
    21a0:	f8cb 5034 	str.w	r5, [fp, #52]	; 0x34
    21a4:	f8cb 4030 	str.w	r4, [fp, #48]	; 0x30
    21a8:	240f      	movs	r4, #15
    21aa:	f8cb 5034 	str.w	r5, [fp, #52]	; 0x34
    21ae:	44b1      	add	r9, r6
    21b0:	635c      	str	r4, [r3, #52]	; 0x34
    21b2:	2401      	movs	r4, #1
    21b4:	631c      	str	r4, [r3, #48]	; 0x30
    21b6:	eb06 080e 	add.w	r8, r6, lr
    21ba:	f9ba 7108 	ldrsh.w	r7, [sl, #264]	; 0x108
    21be:	f899 e014 	ldrb.w	lr, [r9, #20]
    21c2:	f898 c014 	ldrb.w	ip, [r8, #20]
    21c6:	4437      	add	r7, r6
    21c8:	f1ae 0e80 	sub.w	lr, lr, #128	; 0x80
    21cc:	fa1f fe8e 	uxth.w	lr, lr
    21d0:	7d3c      	ldrb	r4, [r7, #20]
    21d2:	6359      	str	r1, [r3, #52]	; 0x34
    21d4:	fa0f f78e 	sxth.w	r7, lr
    21d8:	eb07 0947 	add.w	r9, r7, r7, lsl #1
    21dc:	eb09 1909 	add.w	r9, r9, r9, lsl #4
    21e0:	f1ac 0c80 	sub.w	ip, ip, #128	; 0x80
    21e4:	f8cd 900c 	str.w	r9, [sp, #12]
    21e8:	fa1f fc8c 	uxth.w	ip, ip
    21ec:	f64f 799c 	movw	r9, #65436	; 0xff9c
    21f0:	fa0f f88c 	sxth.w	r8, ip
    21f4:	3c10      	subs	r4, #16
    21f6:	fb1c fc09 	smulbb	ip, ip, r9
    21fa:	f8dd 900c 	ldr.w	r9, [sp, #12]
    21fe:	631a      	str	r2, [r3, #48]	; 0x30
    2200:	b2a4      	uxth	r4, r4
    2202:	fb14 cc00 	smlabb	ip, r4, r0, ip
    2206:	eb07 07c9 	add.w	r7, r7, r9, lsl #3
    220a:	eb08 18c8 	add.w	r8, r8, r8, lsl #7
    220e:	f64f 7930 	movw	r9, #65328	; 0xff30
    2212:	fb14 7700 	smlabb	r7, r4, r0, r7
    2216:	fb1e cc09 	smlabb	ip, lr, r9, ip
    221a:	ea4f 0888 	mov.w	r8, r8, lsl #2
    221e:	fb14 8800 	smlabb	r8, r4, r0, r8
    2222:	f9ba e112 	ldrsh.w	lr, [sl, #274]	; 0x112
    2226:	f8cb 5034 	str.w	r5, [fp, #52]	; 0x34
    222a:	f20c 1c4d 	addw	ip, ip, #333	; 0x14d
    222e:	f207 174d 	addw	r7, r7, #333	; 0x14d
    2232:	fa0c f402 	lsl.w	r4, ip, r2
    2236:	4097      	lsls	r7, r2
    2238:	f208 184d 	addw	r8, r8, #333	; 0x14d
    223c:	f8cb 7030 	str.w	r7, [fp, #48]	; 0x30
    2240:	fa08 f802 	lsl.w	r8, r8, r2
    2244:	6359      	str	r1, [r3, #52]	; 0x34
    2246:	44b6      	add	lr, r6
    2248:	631a      	str	r2, [r3, #48]	; 0x30
    224a:	f8cb 5034 	str.w	r5, [fp, #52]	; 0x34
    224e:	f8cb 4030 	str.w	r4, [fp, #48]	; 0x30
    2252:	240f      	movs	r4, #15
    2254:	6359      	str	r1, [r3, #52]	; 0x34
    2256:	f9ba 7110 	ldrsh.w	r7, [sl, #272]	; 0x110
    225a:	631a      	str	r2, [r3, #48]	; 0x30
    225c:	f8cb 5034 	str.w	r5, [fp, #52]	; 0x34
    2260:	f8cb 8030 	str.w	r8, [fp, #48]	; 0x30
    2264:	f8cb 5034 	str.w	r5, [fp, #52]	; 0x34
    2268:	635c      	str	r4, [r3, #52]	; 0x34
    226a:	2401      	movs	r4, #1
    226c:	631c      	str	r4, [r3, #48]	; 0x30
    226e:	f89e e014 	ldrb.w	lr, [lr, #20]
    2272:	f9ba 410e 	ldrsh.w	r4, [sl, #270]	; 0x10e
    2276:	f9ba 8118 	ldrsh.w	r8, [sl, #280]	; 0x118
    227a:	f8cd 800c 	str.w	r8, [sp, #12]
    227e:	4437      	add	r7, r6
    2280:	f1ae 0e80 	sub.w	lr, lr, #128	; 0x80
    2284:	f897 c014 	ldrb.w	ip, [r7, #20]
    2288:	fa1f fe8e 	uxth.w	lr, lr
    228c:	fa0f f78e 	sxth.w	r7, lr
    2290:	4434      	add	r4, r6
    2292:	eb07 0847 	add.w	r8, r7, r7, lsl #1
    2296:	f1ac 0c80 	sub.w	ip, ip, #128	; 0x80
    229a:	7d24      	ldrb	r4, [r4, #20]
    229c:	6359      	str	r1, [r3, #52]	; 0x34
    229e:	fa1f fc8c 	uxth.w	ip, ip
    22a2:	eb08 1808 	add.w	r8, r8, r8, lsl #4
    22a6:	eb07 07c8 	add.w	r7, r7, r8, lsl #3
    22aa:	fa0f f88c 	sxth.w	r8, ip
    22ae:	f64f 799c 	movw	r9, #65436	; 0xff9c
    22b2:	3c10      	subs	r4, #16
    22b4:	eb08 18c8 	add.w	r8, r8, r8, lsl #7
    22b8:	b2a4      	uxth	r4, r4
    22ba:	fb1c fc09 	smulbb	ip, ip, r9
    22be:	ea4f 0888 	mov.w	r8, r8, lsl #2
    22c2:	fb14 cc00 	smlabb	ip, r4, r0, ip
    22c6:	fb14 7700 	smlabb	r7, r4, r0, r7
    22ca:	fb14 8800 	smlabb	r8, r4, r0, r8
    22ce:	f64f 7430 	movw	r4, #65328	; 0xff30
    22d2:	fb1e cc04 	smlabb	ip, lr, r4, ip
    22d6:	f8dd 900c 	ldr.w	r9, [sp, #12]
    22da:	631a      	str	r2, [r3, #48]	; 0x30
    22dc:	f208 184d 	addw	r8, r8, #333	; 0x14d
    22e0:	f207 174d 	addw	r7, r7, #333	; 0x14d
    22e4:	f20c 1c4d 	addw	ip, ip, #333	; 0x14d
    22e8:	fa08 f402 	lsl.w	r4, r8, r2
    22ec:	4097      	lsls	r7, r2
    22ee:	fa0c fc02 	lsl.w	ip, ip, r2
    22f2:	f8cb 5034 	str.w	r5, [fp, #52]	; 0x34
    22f6:	44b1      	add	r9, r6
    22f8:	f8cb 7030 	str.w	r7, [fp, #48]	; 0x30
    22fc:	6359      	str	r1, [r3, #52]	; 0x34
    22fe:	270f      	movs	r7, #15
    2300:	631a      	str	r2, [r3, #48]	; 0x30
    2302:	f8cb 5034 	str.w	r5, [fp, #52]	; 0x34
    2306:	f8cb c030 	str.w	ip, [fp, #48]	; 0x30
    230a:	6359      	str	r1, [r3, #52]	; 0x34
    230c:	631a      	str	r2, [r3, #48]	; 0x30
    230e:	f8cb 5034 	str.w	r5, [fp, #52]	; 0x34
    2312:	f8cb 4030 	str.w	r4, [fp, #48]	; 0x30
    2316:	2401      	movs	r4, #1
    2318:	f8cb 5034 	str.w	r5, [fp, #52]	; 0x34
    231c:	f9ba c116 	ldrsh.w	ip, [sl, #278]	; 0x116
    2320:	635f      	str	r7, [r3, #52]	; 0x34
    2322:	631c      	str	r4, [r3, #48]	; 0x30
    2324:	f899 e014 	ldrb.w	lr, [r9, #20]
    2328:	f9ba 4114 	ldrsh.w	r4, [sl, #276]	; 0x114
    232c:	44b4      	add	ip, r6
    232e:	f1ae 0e80 	sub.w	lr, lr, #128	; 0x80
    2332:	4434      	add	r4, r6
    2334:	f89c c014 	ldrb.w	ip, [ip, #20]
    2338:	7d24      	ldrb	r4, [r4, #20]
    233a:	6359      	str	r1, [r3, #52]	; 0x34
    233c:	fa1f fe8e 	uxth.w	lr, lr
    2340:	fa0f f78e 	sxth.w	r7, lr
    2344:	eb07 0847 	add.w	r8, r7, r7, lsl #1
    2348:	f1ac 0c80 	sub.w	ip, ip, #128	; 0x80
    234c:	eb08 1808 	add.w	r8, r8, r8, lsl #4
    2350:	fa1f fc8c 	uxth.w	ip, ip
    2354:	f64f 799c 	movw	r9, #65436	; 0xff9c
    2358:	3c10      	subs	r4, #16
    235a:	b2a4      	uxth	r4, r4
    235c:	eb07 07c8 	add.w	r7, r7, r8, lsl #3
    2360:	fa0f f88c 	sxth.w	r8, ip
    2364:	fb1c fc09 	smulbb	ip, ip, r9
    2368:	fb14 cc00 	smlabb	ip, r4, r0, ip
    236c:	f64f 7930 	movw	r9, #65328	; 0xff30
    2370:	eb08 18c8 	add.w	r8, r8, r8, lsl #7
    2374:	fb14 7700 	smlabb	r7, r4, r0, r7
    2378:	fb1e ce09 	smlabb	lr, lr, r9, ip
    237c:	ea4f 0888 	mov.w	r8, r8, lsl #2
    2380:	fb14 8800 	smlabb	r8, r4, r0, r8
    2384:	f20e 1e4d 	addw	lr, lr, #333	; 0x14d
    2388:	f207 174d 	addw	r7, r7, #333	; 0x14d
    238c:	f9ba c11e 	ldrsh.w	ip, [sl, #286]	; 0x11e
    2390:	631a      	str	r2, [r3, #48]	; 0x30
    2392:	fa0e f402 	lsl.w	r4, lr, r2
    2396:	4097      	lsls	r7, r2
    2398:	f208 184d 	addw	r8, r8, #333	; 0x14d
    239c:	f8cb 5034 	str.w	r5, [fp, #52]	; 0x34
    23a0:	fa08 f802 	lsl.w	r8, r8, r2
    23a4:	f8cb 7030 	str.w	r7, [fp, #48]	; 0x30
    23a8:	f9ba 711c 	ldrsh.w	r7, [sl, #284]	; 0x11c
    23ac:	6359      	str	r1, [r3, #52]	; 0x34
    23ae:	631a      	str	r2, [r3, #48]	; 0x30
    23b0:	f8cb 5034 	str.w	r5, [fp, #52]	; 0x34
    23b4:	f8cb 4030 	str.w	r4, [fp, #48]	; 0x30
    23b8:	240f      	movs	r4, #15
    23ba:	6359      	str	r1, [r3, #52]	; 0x34
    23bc:	44b4      	add	ip, r6
    23be:	631a      	str	r2, [r3, #48]	; 0x30
    23c0:	f8cb 5034 	str.w	r5, [fp, #52]	; 0x34
    23c4:	f8cb 8030 	str.w	r8, [fp, #48]	; 0x30
    23c8:	f8cb 5034 	str.w	r5, [fp, #52]	; 0x34
    23cc:	635c      	str	r4, [r3, #52]	; 0x34
    23ce:	2401      	movs	r4, #1
    23d0:	631c      	str	r4, [r3, #48]	; 0x30
    23d2:	f89c e014 	ldrb.w	lr, [ip, #20]
    23d6:	f9ba 911a 	ldrsh.w	r9, [sl, #282]	; 0x11a
    23da:	4437      	add	r7, r6
    23dc:	f1ae 0e80 	sub.w	lr, lr, #128	; 0x80
    23e0:	f897 c014 	ldrb.w	ip, [r7, #20]
    23e4:	f9ba 7124 	ldrsh.w	r7, [sl, #292]	; 0x124
    23e8:	9703      	str	r7, [sp, #12]
    23ea:	fa1f fe8e 	uxth.w	lr, lr
    23ee:	fa0f f78e 	sxth.w	r7, lr
    23f2:	eb09 0406 	add.w	r4, r9, r6
    23f6:	eb07 0847 	add.w	r8, r7, r7, lsl #1
    23fa:	f1ac 0c80 	sub.w	ip, ip, #128	; 0x80
    23fe:	7d24      	ldrb	r4, [r4, #20]
    2400:	6359      	str	r1, [r3, #52]	; 0x34
    2402:	fa1f fc8c 	uxth.w	ip, ip
    2406:	eb08 1808 	add.w	r8, r8, r8, lsl #4
    240a:	eb07 07c8 	add.w	r7, r7, r8, lsl #3
    240e:	fa0f f88c 	sxth.w	r8, ip
    2412:	f64f 799c 	movw	r9, #65436	; 0xff9c
    2416:	3c10      	subs	r4, #16
    2418:	eb08 18c8 	add.w	r8, r8, r8, lsl #7
    241c:	b2a4      	uxth	r4, r4
    241e:	fb1c fc09 	smulbb	ip, ip, r9
    2422:	ea4f 0888 	mov.w	r8, r8, lsl #2
    2426:	fb14 cc00 	smlabb	ip, r4, r0, ip
    242a:	fb14 7700 	smlabb	r7, r4, r0, r7
    242e:	fb14 8800 	smlabb	r8, r4, r0, r8
    2432:	f64f 7430 	movw	r4, #65328	; 0xff30
    2436:	fb1e cc04 	smlabb	ip, lr, r4, ip
    243a:	f208 184d 	addw	r8, r8, #333	; 0x14d
    243e:	f207 174d 	addw	r7, r7, #333	; 0x14d
    2442:	f20c 1c4d 	addw	ip, ip, #333	; 0x14d
    2446:	f8dd 900c 	ldr.w	r9, [sp, #12]
    244a:	631a      	str	r2, [r3, #48]	; 0x30
    244c:	fa08 f402 	lsl.w	r4, r8, r2
    2450:	4097      	lsls	r7, r2
    2452:	fa0c fc02 	lsl.w	ip, ip, r2
    2456:	f8cb 5034 	str.w	r5, [fp, #52]	; 0x34
    245a:	f8cb 7030 	str.w	r7, [fp, #48]	; 0x30
    245e:	6359      	str	r1, [r3, #52]	; 0x34
    2460:	631a      	str	r2, [r3, #48]	; 0x30
    2462:	f8cb 5034 	str.w	r5, [fp, #52]	; 0x34
    2466:	f8cb c030 	str.w	ip, [fp, #48]	; 0x30
    246a:	6359      	str	r1, [r3, #52]	; 0x34
    246c:	631a      	str	r2, [r3, #48]	; 0x30
    246e:	f8cb 5034 	str.w	r5, [fp, #52]	; 0x34
    2472:	f8cb 4030 	str.w	r4, [fp, #48]	; 0x30
    2476:	240f      	movs	r4, #15
    2478:	f8cb 5034 	str.w	r5, [fp, #52]	; 0x34
    247c:	f9ba e122 	ldrsh.w	lr, [sl, #290]	; 0x122
    2480:	635c      	str	r4, [r3, #52]	; 0x34
    2482:	44b1      	add	r9, r6
    2484:	2401      	movs	r4, #1
    2486:	631c      	str	r4, [r3, #48]	; 0x30
    2488:	eb06 080e 	add.w	r8, r6, lr
    248c:	f9ba 7120 	ldrsh.w	r7, [sl, #288]	; 0x120
    2490:	f899 e014 	ldrb.w	lr, [r9, #20]
    2494:	f898 9014 	ldrb.w	r9, [r8, #20]
    2498:	4437      	add	r7, r6
    249a:	f1ae 0e80 	sub.w	lr, lr, #128	; 0x80
    249e:	fa1f fe8e 	uxth.w	lr, lr
    24a2:	f8cd e008 	str.w	lr, [sp, #8]
    24a6:	7d3c      	ldrb	r4, [r7, #20]
    24a8:	6359      	str	r1, [r3, #52]	; 0x34
    24aa:	fa0f f78e 	sxth.w	r7, lr
    24ae:	eb07 0c47 	add.w	ip, r7, r7, lsl #1
    24b2:	f1a9 0980 	sub.w	r9, r9, #128	; 0x80
    24b6:	fa1f f989 	uxth.w	r9, r9
    24ba:	f64f 7e9c 	movw	lr, #65436	; 0xff9c
    24be:	3c10      	subs	r4, #16
    24c0:	eb0c 1c0c 	add.w	ip, ip, ip, lsl #4
    24c4:	b2a4      	uxth	r4, r4
    24c6:	fa0f f889 	sxth.w	r8, r9
    24ca:	eb07 0ccc 	add.w	ip, r7, ip, lsl #3
    24ce:	fb19 f90e 	smulbb	r9, r9, lr
    24d2:	9f02      	ldr	r7, [sp, #8]
    24d4:	631a      	str	r2, [r3, #48]	; 0x30
    24d6:	fb14 9900 	smlabb	r9, r4, r0, r9
    24da:	f64f 7e30 	movw	lr, #65328	; 0xff30
    24de:	eb08 18c8 	add.w	r8, r8, r8, lsl #7
    24e2:	fb17 990e 	smlabb	r9, r7, lr, r9
    24e6:	fb14 cc00 	smlabb	ip, r4, r0, ip
    24ea:	ea4f 0888 	mov.w	r8, r8, lsl #2
    24ee:	fb14 8800 	smlabb	r8, r4, r0, r8
    24f2:	f209 194d 	addw	r9, r9, #333	; 0x14d
    24f6:	f20c 1c4d 	addw	ip, ip, #333	; 0x14d
    24fa:	f9ba 712a 	ldrsh.w	r7, [sl, #298]	; 0x12a
    24fe:	f8cb 5034 	str.w	r5, [fp, #52]	; 0x34
    2502:	fa09 f402 	lsl.w	r4, r9, r2
    2506:	fa0c fc02 	lsl.w	ip, ip, r2
    250a:	f208 184d 	addw	r8, r8, #333	; 0x14d
    250e:	f8cb c030 	str.w	ip, [fp, #48]	; 0x30
    2512:	fa08 f802 	lsl.w	r8, r8, r2
    2516:	6359      	str	r1, [r3, #52]	; 0x34
    2518:	631a      	str	r2, [r3, #48]	; 0x30
    251a:	f8cb 5034 	str.w	r5, [fp, #52]	; 0x34
    251e:	f8cb 4030 	str.w	r4, [fp, #48]	; 0x30
    2522:	240f      	movs	r4, #15
    2524:	6359      	str	r1, [r3, #52]	; 0x34
    2526:	f9ba e128 	ldrsh.w	lr, [sl, #296]	; 0x128
    252a:	631a      	str	r2, [r3, #48]	; 0x30
    252c:	4437      	add	r7, r6
    252e:	f8cb 5034 	str.w	r5, [fp, #52]	; 0x34
    2532:	f8cb 8030 	str.w	r8, [fp, #48]	; 0x30
    2536:	f8cb 5034 	str.w	r5, [fp, #52]	; 0x34
    253a:	635c      	str	r4, [r3, #52]	; 0x34
    253c:	2401      	movs	r4, #1
    253e:	631c      	str	r4, [r3, #48]	; 0x30
    2540:	f9ba c126 	ldrsh.w	ip, [sl, #294]	; 0x126
    2544:	eb06 090e 	add.w	r9, r6, lr
    2548:	f897 e014 	ldrb.w	lr, [r7, #20]
    254c:	f899 9014 	ldrb.w	r9, [r9, #20]
    2550:	44b4      	add	ip, r6
    2552:	f1ae 0e80 	sub.w	lr, lr, #128	; 0x80
    2556:	fa1f fe8e 	uxth.w	lr, lr
    255a:	f89c 4014 	ldrb.w	r4, [ip, #20]
    255e:	f8cd e008 	str.w	lr, [sp, #8]
    2562:	fa0f f78e 	sxth.w	r7, lr
    2566:	eb07 0c47 	add.w	ip, r7, r7, lsl #1
    256a:	f1a9 0980 	sub.w	r9, r9, #128	; 0x80
    256e:	fa1f f989 	uxth.w	r9, r9
    2572:	f64f 7e9c 	movw	lr, #65436	; 0xff9c
    2576:	3c10      	subs	r4, #16
    2578:	eb0c 1c0c 	add.w	ip, ip, ip, lsl #4
    257c:	b2a4      	uxth	r4, r4
    257e:	fa0f f889 	sxth.w	r8, r9
    2582:	eb07 0ccc 	add.w	ip, r7, ip, lsl #3
    2586:	fb19 f90e 	smulbb	r9, r9, lr
    258a:	9f02      	ldr	r7, [sp, #8]
    258c:	6359      	str	r1, [r3, #52]	; 0x34
    258e:	fb14 9900 	smlabb	r9, r4, r0, r9
    2592:	f64f 7e30 	movw	lr, #65328	; 0xff30
    2596:	fb17 990e 	smlabb	r9, r7, lr, r9
    259a:	fb14 cc00 	smlabb	ip, r4, r0, ip
    259e:	eb08 18c8 	add.w	r8, r8, r8, lsl #7
    25a2:	f209 194d 	addw	r9, r9, #333	; 0x14d
    25a6:	f20c 1c4d 	addw	ip, ip, #333	; 0x14d
    25aa:	ea4f 0888 	mov.w	r8, r8, lsl #2
    25ae:	fb14 8800 	smlabb	r8, r4, r0, r8
    25b2:	fa09 f702 	lsl.w	r7, r9, r2
    25b6:	fa0c f402 	lsl.w	r4, ip, r2
    25ba:	631a      	str	r2, [r3, #48]	; 0x30
    25bc:	f208 184d 	addw	r8, r8, #333	; 0x14d
    25c0:	f8cb 5034 	str.w	r5, [fp, #52]	; 0x34
    25c4:	f8cb 4030 	str.w	r4, [fp, #48]	; 0x30
    25c8:	6359      	str	r1, [r3, #52]	; 0x34
    25ca:	631a      	str	r2, [r3, #48]	; 0x30
    25cc:	f8cb 5034 	str.w	r5, [fp, #52]	; 0x34
    25d0:	f8cb 7030 	str.w	r7, [fp, #48]	; 0x30
    25d4:	6359      	str	r1, [r3, #52]	; 0x34
    25d6:	f9ba 712e 	ldrsh.w	r7, [sl, #302]	; 0x12e
    25da:	631a      	str	r2, [r3, #48]	; 0x30
    25dc:	fa08 f802 	lsl.w	r8, r8, r2
    25e0:	240f      	movs	r4, #15
    25e2:	f8cb 5034 	str.w	r5, [fp, #52]	; 0x34
    25e6:	f9ba e130 	ldrsh.w	lr, [sl, #304]	; 0x130
    25ea:	f8cb 8030 	str.w	r8, [fp, #48]	; 0x30
    25ee:	4437      	add	r7, r6
    25f0:	f8cb 5034 	str.w	r5, [fp, #52]	; 0x34
    25f4:	635c      	str	r4, [r3, #52]	; 0x34
    25f6:	2401      	movs	r4, #1
    25f8:	631c      	str	r4, [r3, #48]	; 0x30
    25fa:	f897 9014 	ldrb.w	r9, [r7, #20]
    25fe:	f9ba 412c 	ldrsh.w	r4, [sl, #300]	; 0x12c
    2602:	f9ba 8136 	ldrsh.w	r8, [sl, #310]	; 0x136
    2606:	f8cd 8004 	str.w	r8, [sp, #4]
    260a:	44b6      	add	lr, r6
    260c:	4434      	add	r4, r6
    260e:	f89e e014 	ldrb.w	lr, [lr, #20]
    2612:	7d24      	ldrb	r4, [r4, #20]
    2614:	6359      	str	r1, [r3, #52]	; 0x34
    2616:	f1a9 0980 	sub.w	r9, r9, #128	; 0x80
    261a:	fa1f f989 	uxth.w	r9, r9
    261e:	f64f 7c9c 	movw	ip, #65436	; 0xff9c
    2622:	fb19 fc0c 	smulbb	ip, r9, ip
    2626:	f1ae 0e80 	sub.w	lr, lr, #128	; 0x80
    262a:	f8cd c00c 	str.w	ip, [sp, #12]
    262e:	fa1f fe8e 	uxth.w	lr, lr
    2632:	fa0f f989 	sxth.w	r9, r9
    2636:	f8dd 800c 	ldr.w	r8, [sp, #12]
    263a:	fa0f f78e 	sxth.w	r7, lr
    263e:	3c10      	subs	r4, #16
    2640:	eb09 19c9 	add.w	r9, r9, r9, lsl #7
    2644:	b2a4      	uxth	r4, r4
    2646:	eb07 0c47 	add.w	ip, r7, r7, lsl #1
    264a:	ea4f 0989 	mov.w	r9, r9, lsl #2
    264e:	f8cd 9008 	str.w	r9, [sp, #8]
    2652:	fb14 8800 	smlabb	r8, r4, r0, r8
    2656:	f64f 7930 	movw	r9, #65328	; 0xff30
    265a:	eb0c 1c0c 	add.w	ip, ip, ip, lsl #4
    265e:	eb07 0ccc 	add.w	ip, r7, ip, lsl #3
    2662:	fb1e 8709 	smlabb	r7, lr, r9, r8
    2666:	f8dd e008 	ldr.w	lr, [sp, #8]
    266a:	f8dd 8004 	ldr.w	r8, [sp, #4]
    266e:	631a      	str	r2, [r3, #48]	; 0x30
    2670:	fb14 cc00 	smlabb	ip, r4, r0, ip
    2674:	fb14 e900 	smlabb	r9, r4, r0, lr
    2678:	f20c 1c4d 	addw	ip, ip, #333	; 0x14d
    267c:	f207 144d 	addw	r4, r7, #333	; 0x14d
    2680:	fa04 f702 	lsl.w	r7, r4, r2
    2684:	f209 194d 	addw	r9, r9, #333	; 0x14d
    2688:	fa0c f402 	lsl.w	r4, ip, r2
    268c:	f8cb 5034 	str.w	r5, [fp, #52]	; 0x34
    2690:	fa09 f902 	lsl.w	r9, r9, r2
    2694:	f8cb 4030 	str.w	r4, [fp, #48]	; 0x30
    2698:	44b0      	add	r8, r6
    269a:	6359      	str	r1, [r3, #52]	; 0x34
    269c:	240f      	movs	r4, #15
    269e:	631a      	str	r2, [r3, #48]	; 0x30
    26a0:	f8cb 5034 	str.w	r5, [fp, #52]	; 0x34
    26a4:	f8cb 7030 	str.w	r7, [fp, #48]	; 0x30
    26a8:	2701      	movs	r7, #1
    26aa:	6359      	str	r1, [r3, #52]	; 0x34
    26ac:	631a      	str	r2, [r3, #48]	; 0x30
    26ae:	f8cb 5034 	str.w	r5, [fp, #52]	; 0x34
    26b2:	f8cb 9030 	str.w	r9, [fp, #48]	; 0x30
    26b6:	f8cb 5034 	str.w	r5, [fp, #52]	; 0x34
    26ba:	635c      	str	r4, [r3, #52]	; 0x34
    26bc:	631f      	str	r7, [r3, #48]	; 0x30
    26be:	f9ba c134 	ldrsh.w	ip, [sl, #308]	; 0x134
    26c2:	f898 e014 	ldrb.w	lr, [r8, #20]
    26c6:	f9ba 4132 	ldrsh.w	r4, [sl, #306]	; 0x132
    26ca:	44b4      	add	ip, r6
    26cc:	f1ae 0e80 	sub.w	lr, lr, #128	; 0x80
    26d0:	4434      	add	r4, r6
    26d2:	f89c 8014 	ldrb.w	r8, [ip, #20]
    26d6:	7d24      	ldrb	r4, [r4, #20]
    26d8:	6359      	str	r1, [r3, #52]	; 0x34
    26da:	fa1f fe8e 	uxth.w	lr, lr
    26de:	fa0f f78e 	sxth.w	r7, lr
    26e2:	eb07 0c47 	add.w	ip, r7, r7, lsl #1
    26e6:	f1a8 0880 	sub.w	r8, r8, #128	; 0x80
    26ea:	eb0c 1c0c 	add.w	ip, ip, ip, lsl #4
    26ee:	fa1f f888 	uxth.w	r8, r8
    26f2:	f64f 799c 	movw	r9, #65436	; 0xff9c
    26f6:	3c10      	subs	r4, #16
    26f8:	b2a4      	uxth	r4, r4
    26fa:	eb07 07cc 	add.w	r7, r7, ip, lsl #3
    26fe:	fa0f fc88 	sxth.w	ip, r8
    2702:	fb18 f809 	smulbb	r8, r8, r9
    2706:	fb14 8800 	smlabb	r8, r4, r0, r8
    270a:	fb14 7700 	smlabb	r7, r4, r0, r7
    270e:	f64f 7930 	movw	r9, #65328	; 0xff30
    2712:	eb0c 1ccc 	add.w	ip, ip, ip, lsl #7
    2716:	fb1e 8e09 	smlabb	lr, lr, r9, r8
    271a:	f207 174d 	addw	r7, r7, #333	; 0x14d
    271e:	ea4f 0c8c 	mov.w	ip, ip, lsl #2
    2722:	fb14 cc00 	smlabb	ip, r4, r0, ip
    2726:	4097      	lsls	r7, r2
    2728:	f20e 1e4d 	addw	lr, lr, #333	; 0x14d
    272c:	631a      	str	r2, [r3, #48]	; 0x30
    272e:	fa0e f402 	lsl.w	r4, lr, r2
    2732:	f8cb 5034 	str.w	r5, [fp, #52]	; 0x34
    2736:	f20c 184d 	addw	r8, ip, #333	; 0x14d
    273a:	f8cb 7030 	str.w	r7, [fp, #48]	; 0x30
    273e:	f9ba 713a 	ldrsh.w	r7, [sl, #314]	; 0x13a
    2742:	6359      	str	r1, [r3, #52]	; 0x34
    2744:	f9ba 913c 	ldrsh.w	r9, [sl, #316]	; 0x13c
    2748:	631a      	str	r2, [r3, #48]	; 0x30
    274a:	f9ba e138 	ldrsh.w	lr, [sl, #312]	; 0x138
    274e:	f8cb 5034 	str.w	r5, [fp, #52]	; 0x34
    2752:	fa08 f802 	lsl.w	r8, r8, r2
    2756:	f8cb 4030 	str.w	r4, [fp, #48]	; 0x30
    275a:	240f      	movs	r4, #15
    275c:	f8cd e00c 	str.w	lr, [sp, #12]
    2760:	4437      	add	r7, r6
    2762:	6359      	str	r1, [r3, #52]	; 0x34
    2764:	631a      	str	r2, [r3, #48]	; 0x30
    2766:	f8cb 5034 	str.w	r5, [fp, #52]	; 0x34
    276a:	f8cb 8030 	str.w	r8, [fp, #48]	; 0x30
    276e:	f8cb 5034 	str.w	r5, [fp, #52]	; 0x34
    2772:	635c      	str	r4, [r3, #52]	; 0x34
    2774:	2401      	movs	r4, #1
    2776:	631c      	str	r4, [r3, #48]	; 0x30
    2778:	eb06 0c09 	add.w	ip, r6, r9
    277c:	9c03      	ldr	r4, [sp, #12]
    277e:	f897 9014 	ldrb.w	r9, [r7, #20]
    2782:	f89c e014 	ldrb.w	lr, [ip, #20]
    2786:	f9ba 7142 	ldrsh.w	r7, [sl, #322]	; 0x142
    278a:	9701      	str	r7, [sp, #4]
    278c:	4434      	add	r4, r6
    278e:	f1a9 0980 	sub.w	r9, r9, #128	; 0x80
    2792:	7d24      	ldrb	r4, [r4, #20]
    2794:	6359      	str	r1, [r3, #52]	; 0x34
    2796:	fa1f f989 	uxth.w	r9, r9
    279a:	f1ae 0e80 	sub.w	lr, lr, #128	; 0x80
    279e:	f64f 789c 	movw	r8, #65436	; 0xff9c
    27a2:	fa1f fe8e 	uxth.w	lr, lr
    27a6:	fb19 f808 	smulbb	r8, r9, r8
    27aa:	fa0f f989 	sxth.w	r9, r9
    27ae:	fa0f f78e 	sxth.w	r7, lr
    27b2:	3c10      	subs	r4, #16
    27b4:	eb09 19c9 	add.w	r9, r9, r9, lsl #7
    27b8:	b2a4      	uxth	r4, r4
    27ba:	eb07 0c47 	add.w	ip, r7, r7, lsl #1
    27be:	ea4f 0989 	mov.w	r9, r9, lsl #2
    27c2:	fb14 8800 	smlabb	r8, r4, r0, r8
    27c6:	f8cd 9008 	str.w	r9, [sp, #8]
    27ca:	eb0c 1c0c 	add.w	ip, ip, ip, lsl #4
    27ce:	f64f 7930 	movw	r9, #65328	; 0xff30
    27d2:	eb07 0ccc 	add.w	ip, r7, ip, lsl #3
    27d6:	fb1e 8709 	smlabb	r7, lr, r9, r8
    27da:	f8dd e008 	ldr.w	lr, [sp, #8]
    27de:	fb14 cc00 	smlabb	ip, r4, r0, ip
    27e2:	fb14 e900 	smlabb	r9, r4, r0, lr
    27e6:	f20c 1c4d 	addw	ip, ip, #333	; 0x14d
    27ea:	f207 144d 	addw	r4, r7, #333	; 0x14d
    27ee:	4094      	lsls	r4, r2
    27f0:	f9ba 7140 	ldrsh.w	r7, [sl, #320]	; 0x140
    27f4:	631a      	str	r2, [r3, #48]	; 0x30
    27f6:	fa0c fc02 	lsl.w	ip, ip, r2
    27fa:	f8dd 8004 	ldr.w	r8, [sp, #4]
    27fe:	f8cb 5034 	str.w	r5, [fp, #52]	; 0x34
    2802:	f209 194d 	addw	r9, r9, #333	; 0x14d
    2806:	f8cb c030 	str.w	ip, [fp, #48]	; 0x30
    280a:	fa09 f902 	lsl.w	r9, r9, r2
    280e:	6359      	str	r1, [r3, #52]	; 0x34
    2810:	631a      	str	r2, [r3, #48]	; 0x30
    2812:	f8cb 5034 	str.w	r5, [fp, #52]	; 0x34
    2816:	f8cb 4030 	str.w	r4, [fp, #48]	; 0x30
    281a:	240f      	movs	r4, #15
    281c:	6359      	str	r1, [r3, #52]	; 0x34
    281e:	44b0      	add	r8, r6
    2820:	631a      	str	r2, [r3, #48]	; 0x30
    2822:	f8cb 5034 	str.w	r5, [fp, #52]	; 0x34
    2826:	f8cb 9030 	str.w	r9, [fp, #48]	; 0x30
    282a:	f8cb 5034 	str.w	r5, [fp, #52]	; 0x34
    282e:	635c      	str	r4, [r3, #52]	; 0x34
    2830:	2401      	movs	r4, #1
    2832:	631c      	str	r4, [r3, #48]	; 0x30
    2834:	f898 e014 	ldrb.w	lr, [r8, #20]
    2838:	f9ba c13e 	ldrsh.w	ip, [sl, #318]	; 0x13e
    283c:	4437      	add	r7, r6
    283e:	44b4      	add	ip, r6
    2840:	f897 9014 	ldrb.w	r9, [r7, #20]
    2844:	f89c 4014 	ldrb.w	r4, [ip, #20]
    2848:	f1ae 0e80 	sub.w	lr, lr, #128	; 0x80
    284c:	fa1f fe8e 	uxth.w	lr, lr
    2850:	fa0f f78e 	sxth.w	r7, lr
    2854:	f1a9 0980 	sub.w	r9, r9, #128	; 0x80
    2858:	fa1f f989 	uxth.w	r9, r9
    285c:	eb07 0c47 	add.w	ip, r7, r7, lsl #1
    2860:	f8cd e008 	str.w	lr, [sp, #8]
    2864:	fa0f f889 	sxth.w	r8, r9
    2868:	f64f 7e9c 	movw	lr, #65436	; 0xff9c
    286c:	3c10      	subs	r4, #16
    286e:	eb0c 1c0c 	add.w	ip, ip, ip, lsl #4
    2872:	b2a4      	uxth	r4, r4
    2874:	fb19 f90e 	smulbb	r9, r9, lr
    2878:	eb07 0ccc 	add.w	ip, r7, ip, lsl #3
    287c:	eb08 18c8 	add.w	r8, r8, r8, lsl #7
    2880:	9f02      	ldr	r7, [sp, #8]
    2882:	6359      	str	r1, [r3, #52]	; 0x34
    2884:	fb14 9900 	smlabb	r9, r4, r0, r9
    2888:	f64f 7e30 	movw	lr, #65328	; 0xff30
    288c:	ea4f 0888 	mov.w	r8, r8, lsl #2
    2890:	fb17 990e 	smlabb	r9, r7, lr, r9
    2894:	fb14 8800 	smlabb	r8, r4, r0, r8
    2898:	fb14 cc00 	smlabb	ip, r4, r0, ip
    289c:	f9ba e148 	ldrsh.w	lr, [sl, #328]	; 0x148
    28a0:	f9ba 4146 	ldrsh.w	r4, [sl, #326]	; 0x146
    28a4:	9403      	str	r4, [sp, #12]
    28a6:	f209 194d 	addw	r9, r9, #333	; 0x14d
    28aa:	f208 184d 	addw	r8, r8, #333	; 0x14d
    28ae:	f20c 1c4d 	addw	ip, ip, #333	; 0x14d
    28b2:	fa09 f702 	lsl.w	r7, r9, r2
    28b6:	fa08 f402 	lsl.w	r4, r8, r2
    28ba:	fa0c fc02 	lsl.w	ip, ip, r2
    28be:	631a      	str	r2, [r3, #48]	; 0x30
    28c0:	f8dd 800c 	ldr.w	r8, [sp, #12]
    28c4:	f8cb 5034 	str.w	r5, [fp, #52]	; 0x34
    28c8:	44b6      	add	lr, r6
    28ca:	f8cb c030 	str.w	ip, [fp, #48]	; 0x30
    28ce:	6359      	str	r1, [r3, #52]	; 0x34
    28d0:	f9ba c144 	ldrsh.w	ip, [sl, #324]	; 0x144
    28d4:	631a      	str	r2, [r3, #48]	; 0x30
    28d6:	f8cb 5034 	str.w	r5, [fp, #52]	; 0x34
    28da:	f8cb 7030 	str.w	r7, [fp, #48]	; 0x30
    28de:	6359      	str	r1, [r3, #52]	; 0x34
    28e0:	270f      	movs	r7, #15
    28e2:	631a      	str	r2, [r3, #48]	; 0x30
    28e4:	f8cb 5034 	str.w	r5, [fp, #52]	; 0x34
    28e8:	f8cb 4030 	str.w	r4, [fp, #48]	; 0x30
    28ec:	2401      	movs	r4, #1
    28ee:	f8cb 5034 	str.w	r5, [fp, #52]	; 0x34
    28f2:	635f      	str	r7, [r3, #52]	; 0x34
    28f4:	631c      	str	r4, [r3, #48]	; 0x30
    28f6:	f89e e014 	ldrb.w	lr, [lr, #20]
    28fa:	44b0      	add	r8, r6
    28fc:	44b4      	add	ip, r6
    28fe:	f1ae 0e80 	sub.w	lr, lr, #128	; 0x80
    2902:	f898 9014 	ldrb.w	r9, [r8, #20]
    2906:	f89c 4014 	ldrb.w	r4, [ip, #20]
    290a:	fa1f fe8e 	uxth.w	lr, lr
    290e:	fa0f f78e 	sxth.w	r7, lr
    2912:	eb07 0c47 	add.w	ip, r7, r7, lsl #1
    2916:	f1a9 0980 	sub.w	r9, r9, #128	; 0x80
    291a:	f8cd e008 	str.w	lr, [sp, #8]
    291e:	fa1f f989 	uxth.w	r9, r9
    2922:	f64f 7e9c 	movw	lr, #65436	; 0xff9c
    2926:	3c10      	subs	r4, #16
    2928:	eb0c 1c0c 	add.w	ip, ip, ip, lsl #4
    292c:	b2a4      	uxth	r4, r4
    292e:	fa0f f889 	sxth.w	r8, r9
    2932:	eb07 0ccc 	add.w	ip, r7, ip, lsl #3
    2936:	fb19 f90e 	smulbb	r9, r9, lr
    293a:	9f02      	ldr	r7, [sp, #8]
    293c:	6359      	str	r1, [r3, #52]	; 0x34
    293e:	fb14 9900 	smlabb	r9, r4, r0, r9
    2942:	f64f 7e30 	movw	lr, #65328	; 0xff30
    2946:	eb08 18c8 	add.w	r8, r8, r8, lsl #7
    294a:	fb17 990e 	smlabb	r9, r7, lr, r9
    294e:	fb14 cc00 	smlabb	ip, r4, r0, ip
    2952:	ea4f 0888 	mov.w	r8, r8, lsl #2
    2956:	fb14 8800 	smlabb	r8, r4, r0, r8
    295a:	f209 194d 	addw	r9, r9, #333	; 0x14d
    295e:	f20c 1c4d 	addw	ip, ip, #333	; 0x14d
    2962:	fa09 f702 	lsl.w	r7, r9, r2
    2966:	f208 184d 	addw	r8, r8, #333	; 0x14d
    296a:	fa0c fc02 	lsl.w	ip, ip, r2
    296e:	631a      	str	r2, [r3, #48]	; 0x30
    2970:	fa08 f402 	lsl.w	r4, r8, r2
    2974:	f8cb 5034 	str.w	r5, [fp, #52]	; 0x34
    2978:	f9ba e14e 	ldrsh.w	lr, [sl, #334]	; 0x14e
    297c:	f8cb c030 	str.w	ip, [fp, #48]	; 0x30
    2980:	6359      	str	r1, [r3, #52]	; 0x34
    2982:	631a      	str	r2, [r3, #48]	; 0x30
    2984:	f8cb 5034 	str.w	r5, [fp, #52]	; 0x34
    2988:	f8cb 7030 	str.w	r7, [fp, #48]	; 0x30
    298c:	f9ba 714c 	ldrsh.w	r7, [sl, #332]	; 0x14c
    2990:	6359      	str	r1, [r3, #52]	; 0x34
    2992:	631a      	str	r2, [r3, #48]	; 0x30
    2994:	f8cb 5034 	str.w	r5, [fp, #52]	; 0x34
    2998:	f8cb 4030 	str.w	r4, [fp, #48]	; 0x30
    299c:	240f      	movs	r4, #15
    299e:	f8cb 5034 	str.w	r5, [fp, #52]	; 0x34
    29a2:	4437      	add	r7, r6
    29a4:	635c      	str	r4, [r3, #52]	; 0x34
    29a6:	44b6      	add	lr, r6
    29a8:	2401      	movs	r4, #1
    29aa:	631c      	str	r4, [r3, #48]	; 0x30
    29ac:	f897 9014 	ldrb.w	r9, [r7, #20]
    29b0:	f9ba 414a 	ldrsh.w	r4, [sl, #330]	; 0x14a
    29b4:	f89e e014 	ldrb.w	lr, [lr, #20]
    29b8:	f9ba 8154 	ldrsh.w	r8, [sl, #340]	; 0x154
    29bc:	f8cd 8004 	str.w	r8, [sp, #4]
    29c0:	4434      	add	r4, r6
    29c2:	f1ae 0e80 	sub.w	lr, lr, #128	; 0x80
    29c6:	f1a9 0980 	sub.w	r9, r9, #128	; 0x80
    29ca:	fa1f fe8e 	uxth.w	lr, lr
    29ce:	fa1f f989 	uxth.w	r9, r9
    29d2:	f64f 7c9c 	movw	ip, #65436	; 0xff9c
    29d6:	fa0f f78e 	sxth.w	r7, lr
    29da:	fb19 fc0c 	smulbb	ip, r9, ip
    29de:	7d24      	ldrb	r4, [r4, #20]
    29e0:	6359      	str	r1, [r3, #52]	; 0x34
    29e2:	f8cd c00c 	str.w	ip, [sp, #12]
    29e6:	eb07 0c47 	add.w	ip, r7, r7, lsl #1
    29ea:	f8dd 800c 	ldr.w	r8, [sp, #12]
    29ee:	3c10      	subs	r4, #16
    29f0:	eb0c 1c0c 	add.w	ip, ip, ip, lsl #4
    29f4:	b2a4      	uxth	r4, r4
    29f6:	eb07 0ccc 	add.w	ip, r7, ip, lsl #3
    29fa:	f8cd c008 	str.w	ip, [sp, #8]
    29fe:	fb14 8800 	smlabb	r8, r4, r0, r8
    2a02:	f64f 7c30 	movw	ip, #65328	; 0xff30
    2a06:	fa0f f989 	sxth.w	r9, r9
    2a0a:	fb1e 870c 	smlabb	r7, lr, ip, r8
    2a0e:	eb09 19c9 	add.w	r9, r9, r9, lsl #7
    2a12:	f8dd e008 	ldr.w	lr, [sp, #8]
    2a16:	f8dd 8004 	ldr.w	r8, [sp, #4]
    2a1a:	631a      	str	r2, [r3, #48]	; 0x30
    2a1c:	ea4f 0989 	mov.w	r9, r9, lsl #2
    2a20:	fb14 ec00 	smlabb	ip, r4, r0, lr
    2a24:	fb14 9900 	smlabb	r9, r4, r0, r9
    2a28:	f209 194d 	addw	r9, r9, #333	; 0x14d
    2a2c:	f207 144d 	addw	r4, r7, #333	; 0x14d
    2a30:	f20c 1c4d 	addw	ip, ip, #333	; 0x14d
    2a34:	fa04 f702 	lsl.w	r7, r4, r2
    2a38:	fa0c fc02 	lsl.w	ip, ip, r2
    2a3c:	fa09 f402 	lsl.w	r4, r9, r2
    2a40:	f8cb 5034 	str.w	r5, [fp, #52]	; 0x34
    2a44:	44b0      	add	r8, r6
    2a46:	f8cb c030 	str.w	ip, [fp, #48]	; 0x30
    2a4a:	6359      	str	r1, [r3, #52]	; 0x34
    2a4c:	631a      	str	r2, [r3, #48]	; 0x30
    2a4e:	f8cb 5034 	str.w	r5, [fp, #52]	; 0x34
    2a52:	f8cb 7030 	str.w	r7, [fp, #48]	; 0x30
    2a56:	6359      	str	r1, [r3, #52]	; 0x34
    2a58:	2701      	movs	r7, #1
    2a5a:	631a      	str	r2, [r3, #48]	; 0x30
    2a5c:	f8cb 5034 	str.w	r5, [fp, #52]	; 0x34
    2a60:	f8cb 4030 	str.w	r4, [fp, #48]	; 0x30
    2a64:	240f      	movs	r4, #15
    2a66:	f8cb 5034 	str.w	r5, [fp, #52]	; 0x34
    2a6a:	635c      	str	r4, [r3, #52]	; 0x34
    2a6c:	631f      	str	r7, [r3, #48]	; 0x30
    2a6e:	f9ba 7152 	ldrsh.w	r7, [sl, #338]	; 0x152
    2a72:	f898 e014 	ldrb.w	lr, [r8, #20]
    2a76:	f9ba 4150 	ldrsh.w	r4, [sl, #336]	; 0x150
    2a7a:	4437      	add	r7, r6
    2a7c:	f1ae 0e80 	sub.w	lr, lr, #128	; 0x80
    2a80:	4434      	add	r4, r6
    2a82:	f897 8014 	ldrb.w	r8, [r7, #20]
    2a86:	7d24      	ldrb	r4, [r4, #20]
    2a88:	6359      	str	r1, [r3, #52]	; 0x34
    2a8a:	fa1f fe8e 	uxth.w	lr, lr
    2a8e:	fa0f f78e 	sxth.w	r7, lr
    2a92:	eb07 0c47 	add.w	ip, r7, r7, lsl #1
    2a96:	f1a8 0880 	sub.w	r8, r8, #128	; 0x80
    2a9a:	eb0c 1c0c 	add.w	ip, ip, ip, lsl #4
    2a9e:	fa1f f888 	uxth.w	r8, r8
    2aa2:	f64f 799c 	movw	r9, #65436	; 0xff9c
    2aa6:	3c10      	subs	r4, #16
    2aa8:	b2a4      	uxth	r4, r4
    2aaa:	eb07 07cc 	add.w	r7, r7, ip, lsl #3
    2aae:	fa0f fc88 	sxth.w	ip, r8
    2ab2:	fb18 f809 	smulbb	r8, r8, r9
    2ab6:	fb14 8800 	smlabb	r8, r4, r0, r8
    2aba:	f64f 7930 	movw	r9, #65328	; 0xff30
    2abe:	eb0c 1ccc 	add.w	ip, ip, ip, lsl #7
    2ac2:	fb14 7700 	smlabb	r7, r4, r0, r7
    2ac6:	fb1e 8e09 	smlabb	lr, lr, r9, r8
    2aca:	ea4f 0c8c 	mov.w	ip, ip, lsl #2
    2ace:	fb14 cc00 	smlabb	ip, r4, r0, ip
    2ad2:	f20e 1e4d 	addw	lr, lr, #333	; 0x14d
    2ad6:	f207 174d 	addw	r7, r7, #333	; 0x14d
    2ada:	f9ba 915a 	ldrsh.w	r9, [sl, #346]	; 0x15a
    2ade:	631a      	str	r2, [r3, #48]	; 0x30
    2ae0:	fa0e f402 	lsl.w	r4, lr, r2
    2ae4:	4097      	lsls	r7, r2
    2ae6:	f20c 184d 	addw	r8, ip, #333	; 0x14d
    2aea:	f8cb 5034 	str.w	r5, [fp, #52]	; 0x34
    2aee:	fa08 f802 	lsl.w	r8, r8, r2
    2af2:	f8cb 7030 	str.w	r7, [fp, #48]	; 0x30
    2af6:	6359      	str	r1, [r3, #52]	; 0x34
    2af8:	f9ba 7158 	ldrsh.w	r7, [sl, #344]	; 0x158
    2afc:	631a      	str	r2, [r3, #48]	; 0x30
    2afe:	f8cb 5034 	str.w	r5, [fp, #52]	; 0x34
    2b02:	f8cb 4030 	str.w	r4, [fp, #48]	; 0x30
    2b06:	f9ba e156 	ldrsh.w	lr, [sl, #342]	; 0x156
    2b0a:	f8cd e00c 	str.w	lr, [sp, #12]
    2b0e:	240f      	movs	r4, #15
    2b10:	6359      	str	r1, [r3, #52]	; 0x34
    2b12:	eb06 0c09 	add.w	ip, r6, r9
    2b16:	631a      	str	r2, [r3, #48]	; 0x30
    2b18:	f8cb 5034 	str.w	r5, [fp, #52]	; 0x34
    2b1c:	f8cb 8030 	str.w	r8, [fp, #48]	; 0x30
    2b20:	f8cb 5034 	str.w	r5, [fp, #52]	; 0x34
    2b24:	635c      	str	r4, [r3, #52]	; 0x34
    2b26:	2401      	movs	r4, #1
    2b28:	631c      	str	r4, [r3, #48]	; 0x30
    2b2a:	f89c e014 	ldrb.w	lr, [ip, #20]
    2b2e:	9c03      	ldr	r4, [sp, #12]
    2b30:	4437      	add	r7, r6
    2b32:	4434      	add	r4, r6
    2b34:	f1ae 0e80 	sub.w	lr, lr, #128	; 0x80
    2b38:	f897 9014 	ldrb.w	r9, [r7, #20]
    2b3c:	f9ba 7160 	ldrsh.w	r7, [sl, #352]	; 0x160
    2b40:	9701      	str	r7, [sp, #4]
    2b42:	fa1f fe8e 	uxth.w	lr, lr
    2b46:	7d24      	ldrb	r4, [r4, #20]
    2b48:	6359      	str	r1, [r3, #52]	; 0x34
    2b4a:	fa0f f78e 	sxth.w	r7, lr
    2b4e:	eb07 0c47 	add.w	ip, r7, r7, lsl #1
    2b52:	f1a9 0980 	sub.w	r9, r9, #128	; 0x80
    2b56:	fa1f f989 	uxth.w	r9, r9
    2b5a:	3c10      	subs	r4, #16
    2b5c:	f64f 789c 	movw	r8, #65436	; 0xff9c
    2b60:	eb0c 1c0c 	add.w	ip, ip, ip, lsl #4
    2b64:	b2a4      	uxth	r4, r4
    2b66:	eb07 0ccc 	add.w	ip, r7, ip, lsl #3
    2b6a:	fb19 f808 	smulbb	r8, r9, r8
    2b6e:	f8cd c008 	str.w	ip, [sp, #8]
    2b72:	fb14 8800 	smlabb	r8, r4, r0, r8
    2b76:	f64f 7c30 	movw	ip, #65328	; 0xff30
    2b7a:	fb1e 870c 	smlabb	r7, lr, ip, r8
    2b7e:	fa0f f989 	sxth.w	r9, r9
    2b82:	f8dd e008 	ldr.w	lr, [sp, #8]
    2b86:	f8dd 8004 	ldr.w	r8, [sp, #4]
    2b8a:	631a      	str	r2, [r3, #48]	; 0x30
    2b8c:	eb09 19c9 	add.w	r9, r9, r9, lsl #7
    2b90:	fb14 ec00 	smlabb	ip, r4, r0, lr
    2b94:	ea4f 0989 	mov.w	r9, r9, lsl #2
    2b98:	fb14 9900 	smlabb	r9, r4, r0, r9
    2b9c:	f20c 1c4d 	addw	ip, ip, #333	; 0x14d
    2ba0:	f207 144d 	addw	r4, r7, #333	; 0x14d
    2ba4:	4094      	lsls	r4, r2
    2ba6:	fa0c fc02 	lsl.w	ip, ip, r2
    2baa:	f209 194d 	addw	r9, r9, #333	; 0x14d
    2bae:	f8cb 5034 	str.w	r5, [fp, #52]	; 0x34
    2bb2:	fa09 f902 	lsl.w	r9, r9, r2
    2bb6:	f8cb c030 	str.w	ip, [fp, #48]	; 0x30
    2bba:	6359      	str	r1, [r3, #52]	; 0x34
    2bbc:	631a      	str	r2, [r3, #48]	; 0x30
    2bbe:	f8cb 5034 	str.w	r5, [fp, #52]	; 0x34
    2bc2:	f8cb 4030 	str.w	r4, [fp, #48]	; 0x30
    2bc6:	240f      	movs	r4, #15
    2bc8:	6359      	str	r1, [r3, #52]	; 0x34
    2bca:	f9ba 715e 	ldrsh.w	r7, [sl, #350]	; 0x15e
    2bce:	631a      	str	r2, [r3, #48]	; 0x30
    2bd0:	f9ba c15c 	ldrsh.w	ip, [sl, #348]	; 0x15c
    2bd4:	f8cb 5034 	str.w	r5, [fp, #52]	; 0x34
    2bd8:	44b0      	add	r8, r6
    2bda:	f8cb 9030 	str.w	r9, [fp, #48]	; 0x30
    2bde:	f8cb 5034 	str.w	r5, [fp, #52]	; 0x34
    2be2:	635c      	str	r4, [r3, #52]	; 0x34
    2be4:	2401      	movs	r4, #1
    2be6:	631c      	str	r4, [r3, #48]	; 0x30
    2be8:	f898 e014 	ldrb.w	lr, [r8, #20]
    2bec:	4437      	add	r7, r6
    2bee:	44b4      	add	ip, r6
    2bf0:	f897 9014 	ldrb.w	r9, [r7, #20]
    2bf4:	f89c 4014 	ldrb.w	r4, [ip, #20]
    2bf8:	f1ae 0e80 	sub.w	lr, lr, #128	; 0x80
    2bfc:	fa1f fe8e 	uxth.w	lr, lr
    2c00:	fa0f f78e 	sxth.w	r7, lr
    2c04:	f1a9 0980 	sub.w	r9, r9, #128	; 0x80
    2c08:	fa1f f989 	uxth.w	r9, r9
    2c0c:	eb07 0c47 	add.w	ip, r7, r7, lsl #1
    2c10:	f8cd e008 	str.w	lr, [sp, #8]
    2c14:	fa0f f889 	sxth.w	r8, r9
    2c18:	f64f 7e9c 	movw	lr, #65436	; 0xff9c
    2c1c:	3c10      	subs	r4, #16
    2c1e:	eb0c 1c0c 	add.w	ip, ip, ip, lsl #4
    2c22:	b2a4      	uxth	r4, r4
    2c24:	fb19 f90e 	smulbb	r9, r9, lr
    2c28:	eb07 0ccc 	add.w	ip, r7, ip, lsl #3
    2c2c:	eb08 18c8 	add.w	r8, r8, r8, lsl #7
    2c30:	9f02      	ldr	r7, [sp, #8]
    2c32:	6359      	str	r1, [r3, #52]	; 0x34
    2c34:	fb14 9900 	smlabb	r9, r4, r0, r9
    2c38:	f64f 7e30 	movw	lr, #65328	; 0xff30
    2c3c:	ea4f 0888 	mov.w	r8, r8, lsl #2
    2c40:	fb17 990e 	smlabb	r9, r7, lr, r9
    2c44:	fb14 8800 	smlabb	r8, r4, r0, r8
    2c48:	fb14 cc00 	smlabb	ip, r4, r0, ip
    2c4c:	f9ba e166 	ldrsh.w	lr, [sl, #358]	; 0x166
    2c50:	f9ba 4164 	ldrsh.w	r4, [sl, #356]	; 0x164
    2c54:	9403      	str	r4, [sp, #12]
    2c56:	f209 194d 	addw	r9, r9, #333	; 0x14d
    2c5a:	f208 184d 	addw	r8, r8, #333	; 0x14d
    2c5e:	f20c 1c4d 	addw	ip, ip, #333	; 0x14d
    2c62:	fa09 f702 	lsl.w	r7, r9, r2
    2c66:	fa08 f402 	lsl.w	r4, r8, r2
    2c6a:	fa0c fc02 	lsl.w	ip, ip, r2
    2c6e:	631a      	str	r2, [r3, #48]	; 0x30
    2c70:	f8dd 800c 	ldr.w	r8, [sp, #12]
    2c74:	f8cb 5034 	str.w	r5, [fp, #52]	; 0x34
    2c78:	44b6      	add	lr, r6
    2c7a:	f8cb c030 	str.w	ip, [fp, #48]	; 0x30
    2c7e:	6359      	str	r1, [r3, #52]	; 0x34
    2c80:	631a      	str	r2, [r3, #48]	; 0x30
    2c82:	f8cb 5034 	str.w	r5, [fp, #52]	; 0x34
    2c86:	f8cb 7030 	str.w	r7, [fp, #48]	; 0x30
    2c8a:	6359      	str	r1, [r3, #52]	; 0x34
    2c8c:	270f      	movs	r7, #15
    2c8e:	631a      	str	r2, [r3, #48]	; 0x30
    2c90:	f8cb 5034 	str.w	r5, [fp, #52]	; 0x34
    2c94:	f8cb 4030 	str.w	r4, [fp, #48]	; 0x30
    2c98:	2401      	movs	r4, #1
    2c9a:	f8cb 5034 	str.w	r5, [fp, #52]	; 0x34
    2c9e:	635f      	str	r7, [r3, #52]	; 0x34
    2ca0:	631c      	str	r4, [r3, #48]	; 0x30
    2ca2:	f89e e014 	ldrb.w	lr, [lr, #20]
    2ca6:	f9ba c162 	ldrsh.w	ip, [sl, #354]	; 0x162
    2caa:	44b0      	add	r8, r6
    2cac:	44b4      	add	ip, r6
    2cae:	f1ae 0e80 	sub.w	lr, lr, #128	; 0x80
    2cb2:	f898 9014 	ldrb.w	r9, [r8, #20]
    2cb6:	f89c 4014 	ldrb.w	r4, [ip, #20]
    2cba:	fa1f fe8e 	uxth.w	lr, lr
    2cbe:	fa0f f78e 	sxth.w	r7, lr
    2cc2:	eb07 0c47 	add.w	ip, r7, r7, lsl #1
    2cc6:	f1a9 0980 	sub.w	r9, r9, #128	; 0x80
    2cca:	f8cd e008 	str.w	lr, [sp, #8]
    2cce:	fa1f f989 	uxth.w	r9, r9
    2cd2:	f64f 7e9c 	movw	lr, #65436	; 0xff9c
    2cd6:	3c10      	subs	r4, #16
    2cd8:	eb0c 1c0c 	add.w	ip, ip, ip, lsl #4
    2cdc:	b2a4      	uxth	r4, r4
    2cde:	fa0f f889 	sxth.w	r8, r9
    2ce2:	eb07 0ccc 	add.w	ip, r7, ip, lsl #3
    2ce6:	fb19 f90e 	smulbb	r9, r9, lr
    2cea:	9f02      	ldr	r7, [sp, #8]
    2cec:	6359      	str	r1, [r3, #52]	; 0x34
    2cee:	fb14 9900 	smlabb	r9, r4, r0, r9
    2cf2:	f64f 7e30 	movw	lr, #65328	; 0xff30
    2cf6:	eb08 18c8 	add.w	r8, r8, r8, lsl #7
    2cfa:	fb17 990e 	smlabb	r9, r7, lr, r9
    2cfe:	fb14 cc00 	smlabb	ip, r4, r0, ip
    2d02:	ea4f 0888 	mov.w	r8, r8, lsl #2
    2d06:	fb14 8800 	smlabb	r8, r4, r0, r8
    2d0a:	f209 194d 	addw	r9, r9, #333	; 0x14d
    2d0e:	f20c 1c4d 	addw	ip, ip, #333	; 0x14d
    2d12:	fa09 f702 	lsl.w	r7, r9, r2
    2d16:	f208 184d 	addw	r8, r8, #333	; 0x14d
    2d1a:	fa0c fc02 	lsl.w	ip, ip, r2
    2d1e:	fa08 f402 	lsl.w	r4, r8, r2
    2d22:	631a      	str	r2, [r3, #48]	; 0x30
    2d24:	f8cb 5034 	str.w	r5, [fp, #52]	; 0x34
    2d28:	f8cb c030 	str.w	ip, [fp, #48]	; 0x30
    2d2c:	f9ba e16c 	ldrsh.w	lr, [sl, #364]	; 0x16c
    2d30:	6359      	str	r1, [r3, #52]	; 0x34
    2d32:	631a      	str	r2, [r3, #48]	; 0x30
    2d34:	f8cb 5034 	str.w	r5, [fp, #52]	; 0x34
    2d38:	f8cb 7030 	str.w	r7, [fp, #48]	; 0x30
    2d3c:	f9ba 716a 	ldrsh.w	r7, [sl, #362]	; 0x16a
    2d40:	6359      	str	r1, [r3, #52]	; 0x34
    2d42:	631a      	str	r2, [r3, #48]	; 0x30
    2d44:	f8cb 5034 	str.w	r5, [fp, #52]	; 0x34
    2d48:	f8cb 4030 	str.w	r4, [fp, #48]	; 0x30
    2d4c:	240f      	movs	r4, #15
    2d4e:	f8cb 5034 	str.w	r5, [fp, #52]	; 0x34
    2d52:	4437      	add	r7, r6
    2d54:	635c      	str	r4, [r3, #52]	; 0x34
    2d56:	44b6      	add	lr, r6
    2d58:	2401      	movs	r4, #1
    2d5a:	631c      	str	r4, [r3, #48]	; 0x30
    2d5c:	f897 9014 	ldrb.w	r9, [r7, #20]
    2d60:	f89e e014 	ldrb.w	lr, [lr, #20]
    2d64:	f9ba 4168 	ldrsh.w	r4, [sl, #360]	; 0x168
    2d68:	f9ba 8172 	ldrsh.w	r8, [sl, #370]	; 0x172
    2d6c:	f8cd 8004 	str.w	r8, [sp, #4]
    2d70:	4434      	add	r4, r6
    2d72:	f1ae 0e80 	sub.w	lr, lr, #128	; 0x80
    2d76:	f1a9 0980 	sub.w	r9, r9, #128	; 0x80
    2d7a:	fa1f fe8e 	uxth.w	lr, lr
    2d7e:	fa1f f989 	uxth.w	r9, r9
    2d82:	f64f 7c9c 	movw	ip, #65436	; 0xff9c
    2d86:	7d24      	ldrb	r4, [r4, #20]
    2d88:	6359      	str	r1, [r3, #52]	; 0x34
    2d8a:	fa0f f78e 	sxth.w	r7, lr
    2d8e:	fb19 fc0c 	smulbb	ip, r9, ip
    2d92:	f8cd c00c 	str.w	ip, [sp, #12]
    2d96:	eb07 0c47 	add.w	ip, r7, r7, lsl #1
    2d9a:	f8dd 800c 	ldr.w	r8, [sp, #12]
    2d9e:	3c10      	subs	r4, #16
    2da0:	eb0c 1c0c 	add.w	ip, ip, ip, lsl #4
    2da4:	b2a4      	uxth	r4, r4
    2da6:	eb07 0ccc 	add.w	ip, r7, ip, lsl #3
    2daa:	f8cd c008 	str.w	ip, [sp, #8]
    2dae:	fb14 8800 	smlabb	r8, r4, r0, r8
    2db2:	f64f 7c30 	movw	ip, #65328	; 0xff30
    2db6:	fa0f f989 	sxth.w	r9, r9
    2dba:	fb1e 870c 	smlabb	r7, lr, ip, r8
    2dbe:	eb09 19c9 	add.w	r9, r9, r9, lsl #7
    2dc2:	f8dd e008 	ldr.w	lr, [sp, #8]
    2dc6:	f8dd 8004 	ldr.w	r8, [sp, #4]
    2dca:	631a      	str	r2, [r3, #48]	; 0x30
    2dcc:	ea4f 0989 	mov.w	r9, r9, lsl #2
    2dd0:	fb14 ec00 	smlabb	ip, r4, r0, lr
    2dd4:	fb14 9900 	smlabb	r9, r4, r0, r9
    2dd8:	f209 194d 	addw	r9, r9, #333	; 0x14d
    2ddc:	f207 144d 	addw	r4, r7, #333	; 0x14d
    2de0:	f20c 1c4d 	addw	ip, ip, #333	; 0x14d
    2de4:	fa04 f702 	lsl.w	r7, r4, r2
    2de8:	fa0c fc02 	lsl.w	ip, ip, r2
    2dec:	fa09 f402 	lsl.w	r4, r9, r2
    2df0:	f8cb 5034 	str.w	r5, [fp, #52]	; 0x34
    2df4:	44b0      	add	r8, r6
    2df6:	f8cb c030 	str.w	ip, [fp, #48]	; 0x30
    2dfa:	6359      	str	r1, [r3, #52]	; 0x34
    2dfc:	631a      	str	r2, [r3, #48]	; 0x30
    2dfe:	f8cb 5034 	str.w	r5, [fp, #52]	; 0x34
    2e02:	f8cb 7030 	str.w	r7, [fp, #48]	; 0x30
    2e06:	6359      	str	r1, [r3, #52]	; 0x34
    2e08:	2701      	movs	r7, #1
    2e0a:	631a      	str	r2, [r3, #48]	; 0x30
    2e0c:	f8cb 5034 	str.w	r5, [fp, #52]	; 0x34
    2e10:	f8cb 4030 	str.w	r4, [fp, #48]	; 0x30
    2e14:	240f      	movs	r4, #15
    2e16:	f8cb 5034 	str.w	r5, [fp, #52]	; 0x34
    2e1a:	635c      	str	r4, [r3, #52]	; 0x34
    2e1c:	631f      	str	r7, [r3, #48]	; 0x30
    2e1e:	f9ba 7170 	ldrsh.w	r7, [sl, #368]	; 0x170
    2e22:	f898 e014 	ldrb.w	lr, [r8, #20]
    2e26:	f9ba 416e 	ldrsh.w	r4, [sl, #366]	; 0x16e
    2e2a:	4437      	add	r7, r6
    2e2c:	f1ae 0e80 	sub.w	lr, lr, #128	; 0x80
    2e30:	4434      	add	r4, r6
    2e32:	f897 8014 	ldrb.w	r8, [r7, #20]
    2e36:	7d24      	ldrb	r4, [r4, #20]
    2e38:	6359      	str	r1, [r3, #52]	; 0x34
    2e3a:	fa1f fe8e 	uxth.w	lr, lr
    2e3e:	fa0f f78e 	sxth.w	r7, lr
    2e42:	eb07 0c47 	add.w	ip, r7, r7, lsl #1
    2e46:	f1a8 0880 	sub.w	r8, r8, #128	; 0x80
    2e4a:	eb0c 1c0c 	add.w	ip, ip, ip, lsl #4
    2e4e:	fa1f f888 	uxth.w	r8, r8
    2e52:	f64f 799c 	movw	r9, #65436	; 0xff9c
    2e56:	3c10      	subs	r4, #16
    2e58:	b2a4      	uxth	r4, r4
    2e5a:	eb07 07cc 	add.w	r7, r7, ip, lsl #3
    2e5e:	fa0f fc88 	sxth.w	ip, r8
    2e62:	fb18 f809 	smulbb	r8, r8, r9
    2e66:	fb14 8800 	smlabb	r8, r4, r0, r8
    2e6a:	fb14 7700 	smlabb	r7, r4, r0, r7
    2e6e:	f64f 7930 	movw	r9, #65328	; 0xff30
    2e72:	eb0c 1ccc 	add.w	ip, ip, ip, lsl #7
    2e76:	fb1e 8e09 	smlabb	lr, lr, r9, r8
    2e7a:	f207 174d 	addw	r7, r7, #333	; 0x14d
    2e7e:	ea4f 0c8c 	mov.w	ip, ip, lsl #2
    2e82:	fb14 cc00 	smlabb	ip, r4, r0, ip
    2e86:	4097      	lsls	r7, r2
    2e88:	f20e 1e4d 	addw	lr, lr, #333	; 0x14d
    2e8c:	631a      	str	r2, [r3, #48]	; 0x30
    2e8e:	fa0e f402 	lsl.w	r4, lr, r2
    2e92:	f8cb 5034 	str.w	r5, [fp, #52]	; 0x34
    2e96:	f20c 184d 	addw	r8, ip, #333	; 0x14d
    2e9a:	f8cb 7030 	str.w	r7, [fp, #48]	; 0x30
    2e9e:	f9ba 7176 	ldrsh.w	r7, [sl, #374]	; 0x176
    2ea2:	6359      	str	r1, [r3, #52]	; 0x34
    2ea4:	f9ba 9178 	ldrsh.w	r9, [sl, #376]	; 0x178
    2ea8:	631a      	str	r2, [r3, #48]	; 0x30
    2eaa:	f9ba e174 	ldrsh.w	lr, [sl, #372]	; 0x174
    2eae:	f8cb 5034 	str.w	r5, [fp, #52]	; 0x34
    2eb2:	fa08 f802 	lsl.w	r8, r8, r2
    2eb6:	f8cb 4030 	str.w	r4, [fp, #48]	; 0x30
    2eba:	240f      	movs	r4, #15
    2ebc:	f8cd e00c 	str.w	lr, [sp, #12]
    2ec0:	4437      	add	r7, r6
    2ec2:	6359      	str	r1, [r3, #52]	; 0x34
    2ec4:	631a      	str	r2, [r3, #48]	; 0x30
    2ec6:	f8cb 5034 	str.w	r5, [fp, #52]	; 0x34
    2eca:	f8cb 8030 	str.w	r8, [fp, #48]	; 0x30
    2ece:	f8cb 5034 	str.w	r5, [fp, #52]	; 0x34
    2ed2:	635c      	str	r4, [r3, #52]	; 0x34
    2ed4:	2401      	movs	r4, #1
    2ed6:	631c      	str	r4, [r3, #48]	; 0x30
    2ed8:	eb06 0c09 	add.w	ip, r6, r9
    2edc:	f897 9014 	ldrb.w	r9, [r7, #20]
    2ee0:	f9ba 717e 	ldrsh.w	r7, [sl, #382]	; 0x17e
    2ee4:	f89c e014 	ldrb.w	lr, [ip, #20]
    2ee8:	9701      	str	r7, [sp, #4]
    2eea:	9c03      	ldr	r4, [sp, #12]
    2eec:	f1ae 0e80 	sub.w	lr, lr, #128	; 0x80
    2ef0:	4434      	add	r4, r6
    2ef2:	fa1f fe8e 	uxth.w	lr, lr
    2ef6:	7d24      	ldrb	r4, [r4, #20]
    2ef8:	6359      	str	r1, [r3, #52]	; 0x34
    2efa:	fa0f f78e 	sxth.w	r7, lr
    2efe:	eb07 0c47 	add.w	ip, r7, r7, lsl #1
    2f02:	f1a9 0980 	sub.w	r9, r9, #128	; 0x80
    2f06:	fa1f f989 	uxth.w	r9, r9
    2f0a:	3c10      	subs	r4, #16
    2f0c:	f64f 789c 	movw	r8, #65436	; 0xff9c
    2f10:	eb0c 1c0c 	add.w	ip, ip, ip, lsl #4
    2f14:	b2a4      	uxth	r4, r4
    2f16:	eb07 0ccc 	add.w	ip, r7, ip, lsl #3
    2f1a:	fb19 f808 	smulbb	r8, r9, r8
    2f1e:	f8cd c008 	str.w	ip, [sp, #8]
    2f22:	fb14 8800 	smlabb	r8, r4, r0, r8
    2f26:	f64f 7c30 	movw	ip, #65328	; 0xff30
    2f2a:	fb1e 870c 	smlabb	r7, lr, ip, r8
    2f2e:	fa0f f989 	sxth.w	r9, r9
    2f32:	f8dd e008 	ldr.w	lr, [sp, #8]
    2f36:	f8dd 8004 	ldr.w	r8, [sp, #4]
    2f3a:	631a      	str	r2, [r3, #48]	; 0x30
    2f3c:	eb09 19c9 	add.w	r9, r9, r9, lsl #7
    2f40:	fb14 ec00 	smlabb	ip, r4, r0, lr
    2f44:	ea4f 0989 	mov.w	r9, r9, lsl #2
    2f48:	fb14 9900 	smlabb	r9, r4, r0, r9
    2f4c:	f20c 1c4d 	addw	ip, ip, #333	; 0x14d
    2f50:	f207 144d 	addw	r4, r7, #333	; 0x14d
    2f54:	4094      	lsls	r4, r2
    2f56:	fa0c fc02 	lsl.w	ip, ip, r2
    2f5a:	f209 194d 	addw	r9, r9, #333	; 0x14d
    2f5e:	f8cb 5034 	str.w	r5, [fp, #52]	; 0x34
    2f62:	fa09 f902 	lsl.w	r9, r9, r2
    2f66:	f8cb c030 	str.w	ip, [fp, #48]	; 0x30
    2f6a:	6359      	str	r1, [r3, #52]	; 0x34
    2f6c:	631a      	str	r2, [r3, #48]	; 0x30
    2f6e:	f8cb 5034 	str.w	r5, [fp, #52]	; 0x34
    2f72:	f8cb 4030 	str.w	r4, [fp, #48]	; 0x30
    2f76:	240f      	movs	r4, #15
    2f78:	6359      	str	r1, [r3, #52]	; 0x34
    2f7a:	f9ba 717c 	ldrsh.w	r7, [sl, #380]	; 0x17c
    2f7e:	631a      	str	r2, [r3, #48]	; 0x30
    2f80:	44b0      	add	r8, r6
    2f82:	f8cb 5034 	str.w	r5, [fp, #52]	; 0x34
    2f86:	f8cb 9030 	str.w	r9, [fp, #48]	; 0x30
    2f8a:	f8cb 5034 	str.w	r5, [fp, #52]	; 0x34
    2f8e:	635c      	str	r4, [r3, #52]	; 0x34
    2f90:	2401      	movs	r4, #1
    2f92:	631c      	str	r4, [r3, #48]	; 0x30
    2f94:	f898 e014 	ldrb.w	lr, [r8, #20]
    2f98:	f9ba c17a 	ldrsh.w	ip, [sl, #378]	; 0x17a
    2f9c:	4437      	add	r7, r6
    2f9e:	44b4      	add	ip, r6
    2fa0:	f897 9014 	ldrb.w	r9, [r7, #20]
    2fa4:	f89c 4014 	ldrb.w	r4, [ip, #20]
    2fa8:	f1ae 0e80 	sub.w	lr, lr, #128	; 0x80
    2fac:	fa1f fe8e 	uxth.w	lr, lr
    2fb0:	fa0f f78e 	sxth.w	r7, lr
    2fb4:	f1a9 0980 	sub.w	r9, r9, #128	; 0x80
    2fb8:	fa1f f989 	uxth.w	r9, r9
    2fbc:	eb07 0c47 	add.w	ip, r7, r7, lsl #1
    2fc0:	f8cd e008 	str.w	lr, [sp, #8]
    2fc4:	fa0f f889 	sxth.w	r8, r9
    2fc8:	f64f 7e9c 	movw	lr, #65436	; 0xff9c
    2fcc:	3c10      	subs	r4, #16
    2fce:	eb0c 1c0c 	add.w	ip, ip, ip, lsl #4
    2fd2:	b2a4      	uxth	r4, r4
    2fd4:	fb19 f90e 	smulbb	r9, r9, lr
    2fd8:	eb07 0ccc 	add.w	ip, r7, ip, lsl #3
    2fdc:	eb08 18c8 	add.w	r8, r8, r8, lsl #7
    2fe0:	9f02      	ldr	r7, [sp, #8]
    2fe2:	6359      	str	r1, [r3, #52]	; 0x34
    2fe4:	fb14 9900 	smlabb	r9, r4, r0, r9
    2fe8:	f64f 7e30 	movw	lr, #65328	; 0xff30
    2fec:	ea4f 0888 	mov.w	r8, r8, lsl #2
    2ff0:	fb17 990e 	smlabb	r9, r7, lr, r9
    2ff4:	fb14 8800 	smlabb	r8, r4, r0, r8
    2ff8:	fb14 cc00 	smlabb	ip, r4, r0, ip
    2ffc:	f9ba e184 	ldrsh.w	lr, [sl, #388]	; 0x184
    3000:	f9ba 4182 	ldrsh.w	r4, [sl, #386]	; 0x182
    3004:	9403      	str	r4, [sp, #12]
    3006:	f209 194d 	addw	r9, r9, #333	; 0x14d
    300a:	f208 184d 	addw	r8, r8, #333	; 0x14d
    300e:	f20c 1c4d 	addw	ip, ip, #333	; 0x14d
    3012:	fa09 f702 	lsl.w	r7, r9, r2
    3016:	fa08 f402 	lsl.w	r4, r8, r2
    301a:	fa0c fc02 	lsl.w	ip, ip, r2
    301e:	631a      	str	r2, [r3, #48]	; 0x30
    3020:	f8dd 800c 	ldr.w	r8, [sp, #12]
    3024:	f8cb 5034 	str.w	r5, [fp, #52]	; 0x34
    3028:	44b6      	add	lr, r6
    302a:	f8cb c030 	str.w	ip, [fp, #48]	; 0x30
    302e:	6359      	str	r1, [r3, #52]	; 0x34
    3030:	631a      	str	r2, [r3, #48]	; 0x30
    3032:	f8cb 5034 	str.w	r5, [fp, #52]	; 0x34
    3036:	f8cb 7030 	str.w	r7, [fp, #48]	; 0x30
    303a:	6359      	str	r1, [r3, #52]	; 0x34
    303c:	270f      	movs	r7, #15
    303e:	631a      	str	r2, [r3, #48]	; 0x30
    3040:	f8cb 5034 	str.w	r5, [fp, #52]	; 0x34
    3044:	f8cb 4030 	str.w	r4, [fp, #48]	; 0x30
    3048:	2401      	movs	r4, #1
    304a:	f8cb 5034 	str.w	r5, [fp, #52]	; 0x34
    304e:	635f      	str	r7, [r3, #52]	; 0x34
    3050:	631c      	str	r4, [r3, #48]	; 0x30
    3052:	f89e e014 	ldrb.w	lr, [lr, #20]
    3056:	f9ba c180 	ldrsh.w	ip, [sl, #384]	; 0x180
    305a:	44b0      	add	r8, r6
    305c:	44b4      	add	ip, r6
    305e:	f1ae 0e80 	sub.w	lr, lr, #128	; 0x80
    3062:	f898 9014 	ldrb.w	r9, [r8, #20]
    3066:	f89c 4014 	ldrb.w	r4, [ip, #20]
    306a:	fa1f fe8e 	uxth.w	lr, lr
    306e:	fa0f f78e 	sxth.w	r7, lr
    3072:	eb07 0c47 	add.w	ip, r7, r7, lsl #1
    3076:	f1a9 0980 	sub.w	r9, r9, #128	; 0x80
    307a:	f8cd e008 	str.w	lr, [sp, #8]
    307e:	fa1f f989 	uxth.w	r9, r9
    3082:	f64f 7e9c 	movw	lr, #65436	; 0xff9c
    3086:	3c10      	subs	r4, #16
    3088:	eb0c 1c0c 	add.w	ip, ip, ip, lsl #4
    308c:	b2a4      	uxth	r4, r4
    308e:	fa0f f889 	sxth.w	r8, r9
    3092:	eb07 0ccc 	add.w	ip, r7, ip, lsl #3
    3096:	fb19 f90e 	smulbb	r9, r9, lr
    309a:	9f02      	ldr	r7, [sp, #8]
    309c:	6359      	str	r1, [r3, #52]	; 0x34
    309e:	fb14 9900 	smlabb	r9, r4, r0, r9
    30a2:	f64f 7e30 	movw	lr, #65328	; 0xff30
    30a6:	fb17 990e 	smlabb	r9, r7, lr, r9
    30aa:	fb14 cc00 	smlabb	ip, r4, r0, ip
    30ae:	eb08 18c8 	add.w	r8, r8, r8, lsl #7
    30b2:	f209 194d 	addw	r9, r9, #333	; 0x14d
    30b6:	ea4f 0888 	mov.w	r8, r8, lsl #2
    30ba:	f20c 1c4d 	addw	ip, ip, #333	; 0x14d
    30be:	fb14 8800 	smlabb	r8, r4, r0, r8
    30c2:	fa09 f702 	lsl.w	r7, r9, r2
    30c6:	fa0c fc02 	lsl.w	ip, ip, r2
    30ca:	631a      	str	r2, [r3, #48]	; 0x30
    30cc:	f9ba e18a 	ldrsh.w	lr, [sl, #394]	; 0x18a
    30d0:	f8cb 5034 	str.w	r5, [fp, #52]	; 0x34
    30d4:	f208 184d 	addw	r8, r8, #333	; 0x14d
    30d8:	f8cb c030 	str.w	ip, [fp, #48]	; 0x30
    30dc:	6359      	str	r1, [r3, #52]	; 0x34
    30de:	631a      	str	r2, [r3, #48]	; 0x30
    30e0:	f8cb 5034 	str.w	r5, [fp, #52]	; 0x34
    30e4:	f8cb 7030 	str.w	r7, [fp, #48]	; 0x30
    30e8:	f9ba 7188 	ldrsh.w	r7, [sl, #392]	; 0x188
    30ec:	6359      	str	r1, [r3, #52]	; 0x34
    30ee:	fa08 f402 	lsl.w	r4, r8, r2
    30f2:	631a      	str	r2, [r3, #48]	; 0x30
    30f4:	4437      	add	r7, r6
    30f6:	f8cb 5034 	str.w	r5, [fp, #52]	; 0x34
    30fa:	44b6      	add	lr, r6
    30fc:	f8cb 4030 	str.w	r4, [fp, #48]	; 0x30
    3100:	240f      	movs	r4, #15
    3102:	f8cb 5034 	str.w	r5, [fp, #52]	; 0x34
    3106:	635c      	str	r4, [r3, #52]	; 0x34
    3108:	2401      	movs	r4, #1
    310a:	631c      	str	r4, [r3, #48]	; 0x30
    310c:	f897 9014 	ldrb.w	r9, [r7, #20]
    3110:	f89e e014 	ldrb.w	lr, [lr, #20]
    3114:	f9ba 4186 	ldrsh.w	r4, [sl, #390]	; 0x186
    3118:	f9ba 8190 	ldrsh.w	r8, [sl, #400]	; 0x190
    311c:	f8cd 8004 	str.w	r8, [sp, #4]
    3120:	4434      	add	r4, r6
    3122:	f1ae 0e80 	sub.w	lr, lr, #128	; 0x80
    3126:	f1a9 0980 	sub.w	r9, r9, #128	; 0x80
    312a:	fa1f fe8e 	uxth.w	lr, lr
    312e:	fa1f f989 	uxth.w	r9, r9
    3132:	f64f 7c9c 	movw	ip, #65436	; 0xff9c
    3136:	7d24      	ldrb	r4, [r4, #20]
    3138:	6359      	str	r1, [r3, #52]	; 0x34
    313a:	fa0f f78e 	sxth.w	r7, lr
    313e:	fb19 fc0c 	smulbb	ip, r9, ip
    3142:	f8cd c00c 	str.w	ip, [sp, #12]
    3146:	eb07 0c47 	add.w	ip, r7, r7, lsl #1
    314a:	f8dd 800c 	ldr.w	r8, [sp, #12]
    314e:	3c10      	subs	r4, #16
    3150:	eb0c 1c0c 	add.w	ip, ip, ip, lsl #4
    3154:	b2a4      	uxth	r4, r4
    3156:	eb07 0ccc 	add.w	ip, r7, ip, lsl #3
    315a:	f8cd c008 	str.w	ip, [sp, #8]
    315e:	fb14 8800 	smlabb	r8, r4, r0, r8
    3162:	f64f 7c30 	movw	ip, #65328	; 0xff30
    3166:	fa0f f989 	sxth.w	r9, r9
    316a:	fb1e 870c 	smlabb	r7, lr, ip, r8
    316e:	eb09 19c9 	add.w	r9, r9, r9, lsl #7
    3172:	f8dd e008 	ldr.w	lr, [sp, #8]
    3176:	f8dd 8004 	ldr.w	r8, [sp, #4]
    317a:	631a      	str	r2, [r3, #48]	; 0x30
    317c:	ea4f 0989 	mov.w	r9, r9, lsl #2
    3180:	fb14 ec00 	smlabb	ip, r4, r0, lr
    3184:	fb14 9900 	smlabb	r9, r4, r0, r9
    3188:	f209 194d 	addw	r9, r9, #333	; 0x14d
    318c:	f207 144d 	addw	r4, r7, #333	; 0x14d
    3190:	f20c 1c4d 	addw	ip, ip, #333	; 0x14d
    3194:	fa04 f702 	lsl.w	r7, r4, r2
    3198:	fa0c fc02 	lsl.w	ip, ip, r2
    319c:	fa09 f402 	lsl.w	r4, r9, r2
    31a0:	f8cb 5034 	str.w	r5, [fp, #52]	; 0x34
    31a4:	44b0      	add	r8, r6
    31a6:	f8cb c030 	str.w	ip, [fp, #48]	; 0x30
    31aa:	6359      	str	r1, [r3, #52]	; 0x34
    31ac:	631a      	str	r2, [r3, #48]	; 0x30
    31ae:	f8cb 5034 	str.w	r5, [fp, #52]	; 0x34
    31b2:	f8cb 7030 	str.w	r7, [fp, #48]	; 0x30
    31b6:	6359      	str	r1, [r3, #52]	; 0x34
    31b8:	2701      	movs	r7, #1
    31ba:	631a      	str	r2, [r3, #48]	; 0x30
    31bc:	f8cb 5034 	str.w	r5, [fp, #52]	; 0x34
    31c0:	f8cb 4030 	str.w	r4, [fp, #48]	; 0x30
    31c4:	240f      	movs	r4, #15
    31c6:	f8cb 5034 	str.w	r5, [fp, #52]	; 0x34
    31ca:	635c      	str	r4, [r3, #52]	; 0x34
    31cc:	631f      	str	r7, [r3, #48]	; 0x30
    31ce:	f9ba 718e 	ldrsh.w	r7, [sl, #398]	; 0x18e
    31d2:	f898 e014 	ldrb.w	lr, [r8, #20]
    31d6:	f9ba 418c 	ldrsh.w	r4, [sl, #396]	; 0x18c
    31da:	4437      	add	r7, r6
    31dc:	f1ae 0e80 	sub.w	lr, lr, #128	; 0x80
    31e0:	4434      	add	r4, r6
    31e2:	f897 8014 	ldrb.w	r8, [r7, #20]
    31e6:	7d24      	ldrb	r4, [r4, #20]
    31e8:	6359      	str	r1, [r3, #52]	; 0x34
    31ea:	fa1f fe8e 	uxth.w	lr, lr
    31ee:	fa0f f78e 	sxth.w	r7, lr
    31f2:	eb07 0c47 	add.w	ip, r7, r7, lsl #1
    31f6:	f1a8 0880 	sub.w	r8, r8, #128	; 0x80
    31fa:	eb0c 1c0c 	add.w	ip, ip, ip, lsl #4
    31fe:	fa1f f888 	uxth.w	r8, r8
    3202:	f64f 799c 	movw	r9, #65436	; 0xff9c
    3206:	3c10      	subs	r4, #16
    3208:	b2a4      	uxth	r4, r4
    320a:	eb07 07cc 	add.w	r7, r7, ip, lsl #3
    320e:	fa0f fc88 	sxth.w	ip, r8
    3212:	fb18 f809 	smulbb	r8, r8, r9
    3216:	fb14 8800 	smlabb	r8, r4, r0, r8
    321a:	f64f 7930 	movw	r9, #65328	; 0xff30
    321e:	eb0c 1ccc 	add.w	ip, ip, ip, lsl #7
    3222:	fb14 7700 	smlabb	r7, r4, r0, r7
    3226:	fb1e 8e09 	smlabb	lr, lr, r9, r8
    322a:	ea4f 0c8c 	mov.w	ip, ip, lsl #2
    322e:	fb14 cc00 	smlabb	ip, r4, r0, ip
    3232:	f20e 1e4d 	addw	lr, lr, #333	; 0x14d
    3236:	f207 174d 	addw	r7, r7, #333	; 0x14d
    323a:	fa0e f402 	lsl.w	r4, lr, r2
    323e:	4097      	lsls	r7, r2
    3240:	f20c 184d 	addw	r8, ip, #333	; 0x14d
    3244:	631a      	str	r2, [r3, #48]	; 0x30
    3246:	f8cb 5034 	str.w	r5, [fp, #52]	; 0x34
    324a:	f9ba 9196 	ldrsh.w	r9, [sl, #406]	; 0x196
    324e:	f8cb 7030 	str.w	r7, [fp, #48]	; 0x30
    3252:	f9ba e192 	ldrsh.w	lr, [sl, #402]	; 0x192
    3256:	6359      	str	r1, [r3, #52]	; 0x34
    3258:	fa08 f802 	lsl.w	r8, r8, r2
    325c:	631a      	str	r2, [r3, #48]	; 0x30
    325e:	f8cb 5034 	str.w	r5, [fp, #52]	; 0x34
    3262:	f8cb 4030 	str.w	r4, [fp, #48]	; 0x30
    3266:	240f      	movs	r4, #15
    3268:	f8cd e00c 	str.w	lr, [sp, #12]
    326c:	eb06 0c09 	add.w	ip, r6, r9
    3270:	6359      	str	r1, [r3, #52]	; 0x34
    3272:	631a      	str	r2, [r3, #48]	; 0x30
    3274:	f8cb 5034 	str.w	r5, [fp, #52]	; 0x34
    3278:	f8cb 8030 	str.w	r8, [fp, #48]	; 0x30
    327c:	f8cb 5034 	str.w	r5, [fp, #52]	; 0x34
    3280:	635c      	str	r4, [r3, #52]	; 0x34
    3282:	2401      	movs	r4, #1
    3284:	631c      	str	r4, [r3, #48]	; 0x30
    3286:	f9ba 7194 	ldrsh.w	r7, [sl, #404]	; 0x194
    328a:	f89c e014 	ldrb.w	lr, [ip, #20]
    328e:	9c03      	ldr	r4, [sp, #12]
    3290:	4437      	add	r7, r6
    3292:	4434      	add	r4, r6
    3294:	f1ae 0e80 	sub.w	lr, lr, #128	; 0x80
    3298:	f897 9014 	ldrb.w	r9, [r7, #20]
    329c:	f9ba 719c 	ldrsh.w	r7, [sl, #412]	; 0x19c
    32a0:	9701      	str	r7, [sp, #4]
    32a2:	fa1f fe8e 	uxth.w	lr, lr
    32a6:	7d24      	ldrb	r4, [r4, #20]
    32a8:	6359      	str	r1, [r3, #52]	; 0x34
    32aa:	fa0f f78e 	sxth.w	r7, lr
    32ae:	eb07 0c47 	add.w	ip, r7, r7, lsl #1
    32b2:	f1a9 0980 	sub.w	r9, r9, #128	; 0x80
    32b6:	fa1f f989 	uxth.w	r9, r9
    32ba:	3c10      	subs	r4, #16
    32bc:	f64f 789c 	movw	r8, #65436	; 0xff9c
    32c0:	eb0c 1c0c 	add.w	ip, ip, ip, lsl #4
    32c4:	b2a4      	uxth	r4, r4
    32c6:	eb07 0ccc 	add.w	ip, r7, ip, lsl #3
    32ca:	fb19 f808 	smulbb	r8, r9, r8
    32ce:	f8cd c008 	str.w	ip, [sp, #8]
    32d2:	fb14 8800 	smlabb	r8, r4, r0, r8
    32d6:	f64f 7c30 	movw	ip, #65328	; 0xff30
    32da:	fb1e 870c 	smlabb	r7, lr, ip, r8
    32de:	fa0f f989 	sxth.w	r9, r9
    32e2:	f8dd e008 	ldr.w	lr, [sp, #8]
    32e6:	f8dd 8004 	ldr.w	r8, [sp, #4]
    32ea:	631a      	str	r2, [r3, #48]	; 0x30
    32ec:	eb09 19c9 	add.w	r9, r9, r9, lsl #7
    32f0:	fb14 ec00 	smlabb	ip, r4, r0, lr
    32f4:	ea4f 0989 	mov.w	r9, r9, lsl #2
    32f8:	fb14 9900 	smlabb	r9, r4, r0, r9
    32fc:	f20c 1c4d 	addw	ip, ip, #333	; 0x14d
    3300:	f207 144d 	addw	r4, r7, #333	; 0x14d
    3304:	4094      	lsls	r4, r2
    3306:	fa0c fc02 	lsl.w	ip, ip, r2
    330a:	f209 194d 	addw	r9, r9, #333	; 0x14d
    330e:	f8cb 5034 	str.w	r5, [fp, #52]	; 0x34
    3312:	f9ba 719a 	ldrsh.w	r7, [sl, #410]	; 0x19a
    3316:	f8cb c030 	str.w	ip, [fp, #48]	; 0x30
    331a:	fa09 f902 	lsl.w	r9, r9, r2
    331e:	f9ba c198 	ldrsh.w	ip, [sl, #408]	; 0x198
    3322:	6359      	str	r1, [r3, #52]	; 0x34
    3324:	631a      	str	r2, [r3, #48]	; 0x30
    3326:	f8cb 5034 	str.w	r5, [fp, #52]	; 0x34
    332a:	f8cb 4030 	str.w	r4, [fp, #48]	; 0x30
    332e:	240f      	movs	r4, #15
    3330:	6359      	str	r1, [r3, #52]	; 0x34
    3332:	44b0      	add	r8, r6
    3334:	631a      	str	r2, [r3, #48]	; 0x30
    3336:	f8cb 5034 	str.w	r5, [fp, #52]	; 0x34
    333a:	f8cb 9030 	str.w	r9, [fp, #48]	; 0x30
    333e:	f8cb 5034 	str.w	r5, [fp, #52]	; 0x34
    3342:	635c      	str	r4, [r3, #52]	; 0x34
    3344:	2401      	movs	r4, #1
    3346:	631c      	str	r4, [r3, #48]	; 0x30
    3348:	f898 e014 	ldrb.w	lr, [r8, #20]
    334c:	4437      	add	r7, r6
    334e:	44b4      	add	ip, r6
    3350:	f897 9014 	ldrb.w	r9, [r7, #20]
    3354:	f89c 4014 	ldrb.w	r4, [ip, #20]
    3358:	f1ae 0e80 	sub.w	lr, lr, #128	; 0x80
    335c:	fa1f fe8e 	uxth.w	lr, lr
    3360:	fa0f f78e 	sxth.w	r7, lr
    3364:	f1a9 0980 	sub.w	r9, r9, #128	; 0x80
    3368:	fa1f f989 	uxth.w	r9, r9
    336c:	eb07 0c47 	add.w	ip, r7, r7, lsl #1
    3370:	f8cd e008 	str.w	lr, [sp, #8]
    3374:	fa0f f889 	sxth.w	r8, r9
    3378:	f64f 7e9c 	movw	lr, #65436	; 0xff9c
    337c:	3c10      	subs	r4, #16
    337e:	eb0c 1c0c 	add.w	ip, ip, ip, lsl #4
    3382:	b2a4      	uxth	r4, r4
    3384:	fb19 f90e 	smulbb	r9, r9, lr
    3388:	eb07 0ccc 	add.w	ip, r7, ip, lsl #3
    338c:	eb08 18c8 	add.w	r8, r8, r8, lsl #7
    3390:	9f02      	ldr	r7, [sp, #8]
    3392:	6359      	str	r1, [r3, #52]	; 0x34
    3394:	fb14 9900 	smlabb	r9, r4, r0, r9
    3398:	f64f 7e30 	movw	lr, #65328	; 0xff30
    339c:	ea4f 0888 	mov.w	r8, r8, lsl #2
    33a0:	fb17 990e 	smlabb	r9, r7, lr, r9
    33a4:	fb14 8800 	smlabb	r8, r4, r0, r8
    33a8:	fb14 cc00 	smlabb	ip, r4, r0, ip
    33ac:	f9ba e1a2 	ldrsh.w	lr, [sl, #418]	; 0x1a2
    33b0:	f9ba 41a0 	ldrsh.w	r4, [sl, #416]	; 0x1a0
    33b4:	9403      	str	r4, [sp, #12]
    33b6:	f209 194d 	addw	r9, r9, #333	; 0x14d
    33ba:	f208 184d 	addw	r8, r8, #333	; 0x14d
    33be:	f20c 1c4d 	addw	ip, ip, #333	; 0x14d
    33c2:	fa09 f702 	lsl.w	r7, r9, r2
    33c6:	fa08 f402 	lsl.w	r4, r8, r2
    33ca:	fa0c fc02 	lsl.w	ip, ip, r2
    33ce:	631a      	str	r2, [r3, #48]	; 0x30
    33d0:	f8dd 800c 	ldr.w	r8, [sp, #12]
    33d4:	f8cb 5034 	str.w	r5, [fp, #52]	; 0x34
    33d8:	44b6      	add	lr, r6
    33da:	f8cb c030 	str.w	ip, [fp, #48]	; 0x30
    33de:	6359      	str	r1, [r3, #52]	; 0x34
    33e0:	631a      	str	r2, [r3, #48]	; 0x30
    33e2:	f8cb 5034 	str.w	r5, [fp, #52]	; 0x34
    33e6:	f8cb 7030 	str.w	r7, [fp, #48]	; 0x30
    33ea:	6359      	str	r1, [r3, #52]	; 0x34
    33ec:	270f      	movs	r7, #15
    33ee:	631a      	str	r2, [r3, #48]	; 0x30
    33f0:	f8cb 5034 	str.w	r5, [fp, #52]	; 0x34
    33f4:	f8cb 4030 	str.w	r4, [fp, #48]	; 0x30
    33f8:	2401      	movs	r4, #1
    33fa:	f8cb 5034 	str.w	r5, [fp, #52]	; 0x34
    33fe:	635f      	str	r7, [r3, #52]	; 0x34
    3400:	631c      	str	r4, [r3, #48]	; 0x30
    3402:	f9ba c19e 	ldrsh.w	ip, [sl, #414]	; 0x19e
    3406:	f89e e014 	ldrb.w	lr, [lr, #20]
    340a:	44b0      	add	r8, r6
    340c:	44b4      	add	ip, r6
    340e:	f1ae 0e80 	sub.w	lr, lr, #128	; 0x80
    3412:	f898 9014 	ldrb.w	r9, [r8, #20]
    3416:	fa1f fe8e 	uxth.w	lr, lr
    341a:	f8cd e008 	str.w	lr, [sp, #8]
    341e:	fa0f f78e 	sxth.w	r7, lr
    3422:	f89c 4014 	ldrb.w	r4, [ip, #20]
    3426:	6359      	str	r1, [r3, #52]	; 0x34
    3428:	eb07 0c47 	add.w	ip, r7, r7, lsl #1
    342c:	f1a9 0980 	sub.w	r9, r9, #128	; 0x80
    3430:	fa1f f989 	uxth.w	r9, r9
    3434:	f64f 7e9c 	movw	lr, #65436	; 0xff9c
    3438:	3c10      	subs	r4, #16
    343a:	eb0c 1c0c 	add.w	ip, ip, ip, lsl #4
    343e:	b2a4      	uxth	r4, r4
    3440:	fa0f f889 	sxth.w	r8, r9
    3444:	eb07 0ccc 	add.w	ip, r7, ip, lsl #3
    3448:	fb19 f90e 	smulbb	r9, r9, lr
    344c:	9f02      	ldr	r7, [sp, #8]
    344e:	631a      	str	r2, [r3, #48]	; 0x30
    3450:	fb14 9900 	smlabb	r9, r4, r0, r9
    3454:	f64f 7e30 	movw	lr, #65328	; 0xff30
    3458:	eb08 18c8 	add.w	r8, r8, r8, lsl #7
    345c:	fb17 990e 	smlabb	r9, r7, lr, r9
    3460:	fb14 cc00 	smlabb	ip, r4, r0, ip
    3464:	ea4f 0888 	mov.w	r8, r8, lsl #2
    3468:	fb14 8800 	smlabb	r8, r4, r0, r8
    346c:	f209 194d 	addw	r9, r9, #333	; 0x14d
    3470:	f20c 1c4d 	addw	ip, ip, #333	; 0x14d
    3474:	fa09 f702 	lsl.w	r7, r9, r2
    3478:	f208 184d 	addw	r8, r8, #333	; 0x14d
    347c:	fa0c fc02 	lsl.w	ip, ip, r2
    3480:	f8cb 5034 	str.w	r5, [fp, #52]	; 0x34
    3484:	fa08 f402 	lsl.w	r4, r8, r2
    3488:	f8cb c030 	str.w	ip, [fp, #48]	; 0x30
    348c:	f9ba e1a8 	ldrsh.w	lr, [sl, #424]	; 0x1a8
    3490:	6359      	str	r1, [r3, #52]	; 0x34
    3492:	631a      	str	r2, [r3, #48]	; 0x30
    3494:	f8cb 5034 	str.w	r5, [fp, #52]	; 0x34
    3498:	f8cb 7030 	str.w	r7, [fp, #48]	; 0x30
    349c:	f9ba 71a6 	ldrsh.w	r7, [sl, #422]	; 0x1a6
    34a0:	6359      	str	r1, [r3, #52]	; 0x34
    34a2:	631a      	str	r2, [r3, #48]	; 0x30
    34a4:	f8cb 5034 	str.w	r5, [fp, #52]	; 0x34
    34a8:	f8cb 4030 	str.w	r4, [fp, #48]	; 0x30
    34ac:	240f      	movs	r4, #15
    34ae:	f8cb 5034 	str.w	r5, [fp, #52]	; 0x34
    34b2:	4437      	add	r7, r6
    34b4:	635c      	str	r4, [r3, #52]	; 0x34
    34b6:	44b6      	add	lr, r6
    34b8:	2401      	movs	r4, #1
    34ba:	631c      	str	r4, [r3, #48]	; 0x30
    34bc:	f897 9014 	ldrb.w	r9, [r7, #20]
    34c0:	f89e e014 	ldrb.w	lr, [lr, #20]
    34c4:	f9ba 41a4 	ldrsh.w	r4, [sl, #420]	; 0x1a4
    34c8:	f9ba 81ae 	ldrsh.w	r8, [sl, #430]	; 0x1ae
    34cc:	f8cd 8004 	str.w	r8, [sp, #4]
    34d0:	4434      	add	r4, r6
    34d2:	f1ae 0e80 	sub.w	lr, lr, #128	; 0x80
    34d6:	f1a9 0980 	sub.w	r9, r9, #128	; 0x80
    34da:	fa1f fe8e 	uxth.w	lr, lr
    34de:	fa1f f989 	uxth.w	r9, r9
    34e2:	f64f 7c9c 	movw	ip, #65436	; 0xff9c
    34e6:	7d24      	ldrb	r4, [r4, #20]
    34e8:	6359      	str	r1, [r3, #52]	; 0x34
    34ea:	fa0f f78e 	sxth.w	r7, lr
    34ee:	fb19 fc0c 	smulbb	ip, r9, ip
    34f2:	f8cd c00c 	str.w	ip, [sp, #12]
    34f6:	eb07 0c47 	add.w	ip, r7, r7, lsl #1
    34fa:	f8dd 800c 	ldr.w	r8, [sp, #12]
    34fe:	3c10      	subs	r4, #16
    3500:	eb0c 1c0c 	add.w	ip, ip, ip, lsl #4
    3504:	b2a4      	uxth	r4, r4
    3506:	eb07 0ccc 	add.w	ip, r7, ip, lsl #3
    350a:	f8cd c008 	str.w	ip, [sp, #8]
    350e:	fb14 8800 	smlabb	r8, r4, r0, r8
    3512:	f64f 7c30 	movw	ip, #65328	; 0xff30
    3516:	fa0f f989 	sxth.w	r9, r9
    351a:	fb1e 870c 	smlabb	r7, lr, ip, r8
    351e:	eb09 19c9 	add.w	r9, r9, r9, lsl #7
    3522:	f8dd e008 	ldr.w	lr, [sp, #8]
    3526:	f8dd 8004 	ldr.w	r8, [sp, #4]
    352a:	631a      	str	r2, [r3, #48]	; 0x30
    352c:	ea4f 0989 	mov.w	r9, r9, lsl #2
    3530:	fb14 ec00 	smlabb	ip, r4, r0, lr
    3534:	fb14 9900 	smlabb	r9, r4, r0, r9
    3538:	f209 194d 	addw	r9, r9, #333	; 0x14d
    353c:	f207 144d 	addw	r4, r7, #333	; 0x14d
    3540:	f20c 1c4d 	addw	ip, ip, #333	; 0x14d
    3544:	fa04 f702 	lsl.w	r7, r4, r2
    3548:	fa0c fc02 	lsl.w	ip, ip, r2
    354c:	fa09 f402 	lsl.w	r4, r9, r2
    3550:	44b0      	add	r8, r6
    3552:	f8cb 5034 	str.w	r5, [fp, #52]	; 0x34
    3556:	f8cb c030 	str.w	ip, [fp, #48]	; 0x30
    355a:	6359      	str	r1, [r3, #52]	; 0x34
    355c:	631a      	str	r2, [r3, #48]	; 0x30
    355e:	f8cb 5034 	str.w	r5, [fp, #52]	; 0x34
    3562:	f8cb 7030 	str.w	r7, [fp, #48]	; 0x30
    3566:	6359      	str	r1, [r3, #52]	; 0x34
    3568:	2701      	movs	r7, #1
    356a:	631a      	str	r2, [r3, #48]	; 0x30
    356c:	f8cb 5034 	str.w	r5, [fp, #52]	; 0x34
    3570:	f8cb 4030 	str.w	r4, [fp, #48]	; 0x30
    3574:	240f      	movs	r4, #15
    3576:	f8cb 5034 	str.w	r5, [fp, #52]	; 0x34
    357a:	f9ba c1ac 	ldrsh.w	ip, [sl, #428]	; 0x1ac
    357e:	635c      	str	r4, [r3, #52]	; 0x34
    3580:	631f      	str	r7, [r3, #48]	; 0x30
    3582:	f898 e014 	ldrb.w	lr, [r8, #20]
    3586:	f9ba 41aa 	ldrsh.w	r4, [sl, #426]	; 0x1aa
    358a:	44b4      	add	ip, r6
    358c:	f1ae 0e80 	sub.w	lr, lr, #128	; 0x80
    3590:	4434      	add	r4, r6
    3592:	f89c 8014 	ldrb.w	r8, [ip, #20]
    3596:	7d24      	ldrb	r4, [r4, #20]
    3598:	6359      	str	r1, [r3, #52]	; 0x34
    359a:	fa1f fe8e 	uxth.w	lr, lr
    359e:	fa0f f78e 	sxth.w	r7, lr
    35a2:	eb07 0c47 	add.w	ip, r7, r7, lsl #1
    35a6:	f1a8 0880 	sub.w	r8, r8, #128	; 0x80
    35aa:	eb0c 1c0c 	add.w	ip, ip, ip, lsl #4
    35ae:	fa1f f888 	uxth.w	r8, r8
    35b2:	f64f 799c 	movw	r9, #65436	; 0xff9c
    35b6:	3c10      	subs	r4, #16
    35b8:	b2a4      	uxth	r4, r4
    35ba:	eb07 07cc 	add.w	r7, r7, ip, lsl #3
    35be:	fa0f fc88 	sxth.w	ip, r8
    35c2:	fb18 f809 	smulbb	r8, r8, r9
    35c6:	fb14 8800 	smlabb	r8, r4, r0, r8
    35ca:	f64f 7930 	movw	r9, #65328	; 0xff30
    35ce:	eb0c 1ccc 	add.w	ip, ip, ip, lsl #7
    35d2:	fb14 7700 	smlabb	r7, r4, r0, r7
    35d6:	fb1e 8e09 	smlabb	lr, lr, r9, r8
    35da:	ea4f 0c8c 	mov.w	ip, ip, lsl #2
    35de:	fb14 cc00 	smlabb	ip, r4, r0, ip
    35e2:	f20e 1e4d 	addw	lr, lr, #333	; 0x14d
    35e6:	f207 174d 	addw	r7, r7, #333	; 0x14d
    35ea:	f9ba 91b4 	ldrsh.w	r9, [sl, #436]	; 0x1b4
    35ee:	631a      	str	r2, [r3, #48]	; 0x30
    35f0:	fa0e f402 	lsl.w	r4, lr, r2
    35f4:	4097      	lsls	r7, r2
    35f6:	f20c 184d 	addw	r8, ip, #333	; 0x14d
    35fa:	f8cb 5034 	str.w	r5, [fp, #52]	; 0x34
    35fe:	f9ba e1b0 	ldrsh.w	lr, [sl, #432]	; 0x1b0
    3602:	f8cb 7030 	str.w	r7, [fp, #48]	; 0x30
    3606:	fa08 f802 	lsl.w	r8, r8, r2
    360a:	6359      	str	r1, [r3, #52]	; 0x34
    360c:	631a      	str	r2, [r3, #48]	; 0x30
    360e:	f8cb 5034 	str.w	r5, [fp, #52]	; 0x34
    3612:	f8cb 4030 	str.w	r4, [fp, #48]	; 0x30
    3616:	240f      	movs	r4, #15
    3618:	f8cd e00c 	str.w	lr, [sp, #12]
    361c:	f9ba 71b2 	ldrsh.w	r7, [sl, #434]	; 0x1b2
    3620:	6359      	str	r1, [r3, #52]	; 0x34
    3622:	eb06 0c09 	add.w	ip, r6, r9
    3626:	631a      	str	r2, [r3, #48]	; 0x30
    3628:	f8cb 5034 	str.w	r5, [fp, #52]	; 0x34
    362c:	f8cb 8030 	str.w	r8, [fp, #48]	; 0x30
    3630:	f8cb 5034 	str.w	r5, [fp, #52]	; 0x34
    3634:	635c      	str	r4, [r3, #52]	; 0x34
    3636:	2401      	movs	r4, #1
    3638:	631c      	str	r4, [r3, #48]	; 0x30
    363a:	f89c e014 	ldrb.w	lr, [ip, #20]
    363e:	9c03      	ldr	r4, [sp, #12]
    3640:	4437      	add	r7, r6
    3642:	4434      	add	r4, r6
    3644:	f1ae 0e80 	sub.w	lr, lr, #128	; 0x80
    3648:	f897 9014 	ldrb.w	r9, [r7, #20]
    364c:	f9ba 71ba 	ldrsh.w	r7, [sl, #442]	; 0x1ba
    3650:	9701      	str	r7, [sp, #4]
    3652:	fa1f fe8e 	uxth.w	lr, lr
    3656:	7d24      	ldrb	r4, [r4, #20]
    3658:	6359      	str	r1, [r3, #52]	; 0x34
    365a:	fa0f f78e 	sxth.w	r7, lr
    365e:	eb07 0c47 	add.w	ip, r7, r7, lsl #1
    3662:	f1a9 0980 	sub.w	r9, r9, #128	; 0x80
    3666:	fa1f f989 	uxth.w	r9, r9
    366a:	3c10      	subs	r4, #16
    366c:	f64f 789c 	movw	r8, #65436	; 0xff9c
    3670:	eb0c 1c0c 	add.w	ip, ip, ip, lsl #4
    3674:	b2a4      	uxth	r4, r4
    3676:	eb07 0ccc 	add.w	ip, r7, ip, lsl #3
    367a:	fb19 f808 	smulbb	r8, r9, r8
    367e:	f8cd c008 	str.w	ip, [sp, #8]
    3682:	fb14 8800 	smlabb	r8, r4, r0, r8
    3686:	f64f 7c30 	movw	ip, #65328	; 0xff30
    368a:	fb1e 870c 	smlabb	r7, lr, ip, r8
    368e:	fa0f f989 	sxth.w	r9, r9
    3692:	f8dd e008 	ldr.w	lr, [sp, #8]
    3696:	f8dd 8004 	ldr.w	r8, [sp, #4]
    369a:	631a      	str	r2, [r3, #48]	; 0x30
    369c:	eb09 19c9 	add.w	r9, r9, r9, lsl #7
    36a0:	fb14 ec00 	smlabb	ip, r4, r0, lr
    36a4:	ea4f 0989 	mov.w	r9, r9, lsl #2
    36a8:	fb14 9900 	smlabb	r9, r4, r0, r9
    36ac:	f20c 1c4d 	addw	ip, ip, #333	; 0x14d
    36b0:	f207 144d 	addw	r4, r7, #333	; 0x14d
    36b4:	4094      	lsls	r4, r2
    36b6:	fa0c fc02 	lsl.w	ip, ip, r2
    36ba:	f209 194d 	addw	r9, r9, #333	; 0x14d
    36be:	f8cb 5034 	str.w	r5, [fp, #52]	; 0x34
    36c2:	fa09 f902 	lsl.w	r9, r9, r2
    36c6:	f8cb c030 	str.w	ip, [fp, #48]	; 0x30
    36ca:	6359      	str	r1, [r3, #52]	; 0x34
    36cc:	631a      	str	r2, [r3, #48]	; 0x30
    36ce:	f8cb 5034 	str.w	r5, [fp, #52]	; 0x34
    36d2:	f8cb 4030 	str.w	r4, [fp, #48]	; 0x30
    36d6:	240f      	movs	r4, #15
    36d8:	6359      	str	r1, [r3, #52]	; 0x34
    36da:	f9ba 71b8 	ldrsh.w	r7, [sl, #440]	; 0x1b8
    36de:	631a      	str	r2, [r3, #48]	; 0x30
    36e0:	44b0      	add	r8, r6
    36e2:	f8cb 5034 	str.w	r5, [fp, #52]	; 0x34
    36e6:	f8cb 9030 	str.w	r9, [fp, #48]	; 0x30
    36ea:	f8cb 5034 	str.w	r5, [fp, #52]	; 0x34
    36ee:	635c      	str	r4, [r3, #52]	; 0x34
    36f0:	2401      	movs	r4, #1
    36f2:	631c      	str	r4, [r3, #48]	; 0x30
    36f4:	f898 e014 	ldrb.w	lr, [r8, #20]
    36f8:	f9ba c1b6 	ldrsh.w	ip, [sl, #438]	; 0x1b6
    36fc:	4437      	add	r7, r6
    36fe:	44b4      	add	ip, r6
    3700:	f897 9014 	ldrb.w	r9, [r7, #20]
    3704:	f89c 4014 	ldrb.w	r4, [ip, #20]
    3708:	f1ae 0e80 	sub.w	lr, lr, #128	; 0x80
    370c:	fa1f fe8e 	uxth.w	lr, lr
    3710:	fa0f f78e 	sxth.w	r7, lr
    3714:	f1a9 0980 	sub.w	r9, r9, #128	; 0x80
    3718:	fa1f f989 	uxth.w	r9, r9
    371c:	eb07 0c47 	add.w	ip, r7, r7, lsl #1
    3720:	f8cd e008 	str.w	lr, [sp, #8]
    3724:	fa0f f889 	sxth.w	r8, r9
    3728:	f64f 7e9c 	movw	lr, #65436	; 0xff9c
    372c:	3c10      	subs	r4, #16
    372e:	eb0c 1c0c 	add.w	ip, ip, ip, lsl #4
    3732:	b2a4      	uxth	r4, r4
    3734:	fb19 f90e 	smulbb	r9, r9, lr
    3738:	eb07 0ccc 	add.w	ip, r7, ip, lsl #3
    373c:	eb08 18c8 	add.w	r8, r8, r8, lsl #7
    3740:	9f02      	ldr	r7, [sp, #8]
    3742:	6359      	str	r1, [r3, #52]	; 0x34
    3744:	fb14 9900 	smlabb	r9, r4, r0, r9
    3748:	f64f 7e30 	movw	lr, #65328	; 0xff30
    374c:	ea4f 0888 	mov.w	r8, r8, lsl #2
    3750:	fb17 990e 	smlabb	r9, r7, lr, r9
    3754:	fb14 8800 	smlabb	r8, r4, r0, r8
    3758:	fb14 cc00 	smlabb	ip, r4, r0, ip
    375c:	f9ba e1c0 	ldrsh.w	lr, [sl, #448]	; 0x1c0
    3760:	f9ba 41be 	ldrsh.w	r4, [sl, #446]	; 0x1be
    3764:	9403      	str	r4, [sp, #12]
    3766:	f209 194d 	addw	r9, r9, #333	; 0x14d
    376a:	f208 184d 	addw	r8, r8, #333	; 0x14d
    376e:	f20c 1c4d 	addw	ip, ip, #333	; 0x14d
    3772:	fa09 f702 	lsl.w	r7, r9, r2
    3776:	fa08 f402 	lsl.w	r4, r8, r2
    377a:	fa0c fc02 	lsl.w	ip, ip, r2
    377e:	631a      	str	r2, [r3, #48]	; 0x30
    3780:	f8dd 800c 	ldr.w	r8, [sp, #12]
    3784:	f8cb 5034 	str.w	r5, [fp, #52]	; 0x34
    3788:	44b6      	add	lr, r6
    378a:	f8cb c030 	str.w	ip, [fp, #48]	; 0x30
    378e:	6359      	str	r1, [r3, #52]	; 0x34
    3790:	631a      	str	r2, [r3, #48]	; 0x30
    3792:	f8cb 5034 	str.w	r5, [fp, #52]	; 0x34
    3796:	f8cb 7030 	str.w	r7, [fp, #48]	; 0x30
    379a:	6359      	str	r1, [r3, #52]	; 0x34
    379c:	270f      	movs	r7, #15
    379e:	631a      	str	r2, [r3, #48]	; 0x30
    37a0:	f8cb 5034 	str.w	r5, [fp, #52]	; 0x34
    37a4:	f8cb 4030 	str.w	r4, [fp, #48]	; 0x30
    37a8:	2401      	movs	r4, #1
    37aa:	f8cb 5034 	str.w	r5, [fp, #52]	; 0x34
    37ae:	635f      	str	r7, [r3, #52]	; 0x34
    37b0:	631c      	str	r4, [r3, #48]	; 0x30
    37b2:	f89e e014 	ldrb.w	lr, [lr, #20]
    37b6:	f9ba c1bc 	ldrsh.w	ip, [sl, #444]	; 0x1bc
    37ba:	44b0      	add	r8, r6
    37bc:	44b4      	add	ip, r6
    37be:	f898 9014 	ldrb.w	r9, [r8, #20]
    37c2:	f89c 4014 	ldrb.w	r4, [ip, #20]
    37c6:	f1ae 0e80 	sub.w	lr, lr, #128	; 0x80
    37ca:	fa1f fe8e 	uxth.w	lr, lr
    37ce:	fa0f f78e 	sxth.w	r7, lr
    37d2:	f1a9 0980 	sub.w	r9, r9, #128	; 0x80
    37d6:	fa1f f989 	uxth.w	r9, r9
    37da:	eb07 0c47 	add.w	ip, r7, r7, lsl #1
    37de:	f8cd e008 	str.w	lr, [sp, #8]
    37e2:	fa0f f889 	sxth.w	r8, r9
    37e6:	f64f 7e9c 	movw	lr, #65436	; 0xff9c
    37ea:	3c10      	subs	r4, #16
    37ec:	eb0c 1c0c 	add.w	ip, ip, ip, lsl #4
    37f0:	b2a4      	uxth	r4, r4
    37f2:	fb19 f90e 	smulbb	r9, r9, lr
    37f6:	eb07 0ccc 	add.w	ip, r7, ip, lsl #3
    37fa:	eb08 18c8 	add.w	r8, r8, r8, lsl #7
    37fe:	9f02      	ldr	r7, [sp, #8]
    3800:	6359      	str	r1, [r3, #52]	; 0x34
    3802:	fb14 9900 	smlabb	r9, r4, r0, r9
    3806:	f64f 7e30 	movw	lr, #65328	; 0xff30
    380a:	ea4f 0888 	mov.w	r8, r8, lsl #2
    380e:	fb17 990e 	smlabb	r9, r7, lr, r9
    3812:	fb14 8800 	smlabb	r8, r4, r0, r8
    3816:	fb14 cc00 	smlabb	ip, r4, r0, ip
    381a:	f209 194d 	addw	r9, r9, #333	; 0x14d
    381e:	f208 184d 	addw	r8, r8, #333	; 0x14d
    3822:	f20c 1c4d 	addw	ip, ip, #333	; 0x14d
    3826:	fa09 f702 	lsl.w	r7, r9, r2
    382a:	fa08 f402 	lsl.w	r4, r8, r2
    382e:	fa0c fc02 	lsl.w	ip, ip, r2
    3832:	631a      	str	r2, [r3, #48]	; 0x30
    3834:	f8cb 5034 	str.w	r5, [fp, #52]	; 0x34
    3838:	f8cb c030 	str.w	ip, [fp, #48]	; 0x30
    383c:	6359      	str	r1, [r3, #52]	; 0x34
    383e:	631a      	str	r2, [r3, #48]	; 0x30
    3840:	f8cb 5034 	str.w	r5, [fp, #52]	; 0x34
    3844:	f8cb 7030 	str.w	r7, [fp, #48]	; 0x30
    3848:	6359      	str	r1, [r3, #52]	; 0x34
    384a:	631a      	str	r2, [r3, #48]	; 0x30
    384c:	f8cb 5034 	str.w	r5, [fp, #52]	; 0x34
    3850:	f8cb 4030 	str.w	r4, [fp, #48]	; 0x30
    3854:	f8cb 5034 	str.w	r5, [fp, #52]	; 0x34
    3858:	f9ba e1c6 	ldrsh.w	lr, [sl, #454]	; 0x1c6
    385c:	f9ba 71c4 	ldrsh.w	r7, [sl, #452]	; 0x1c4
    3860:	f9ba 81cc 	ldrsh.w	r8, [sl, #460]	; 0x1cc
    3864:	240f      	movs	r4, #15
    3866:	635c      	str	r4, [r3, #52]	; 0x34
    3868:	4437      	add	r7, r6
    386a:	2401      	movs	r4, #1
    386c:	44b6      	add	lr, r6
    386e:	631c      	str	r4, [r3, #48]	; 0x30
    3870:	f897 9014 	ldrb.w	r9, [r7, #20]
    3874:	f89e e014 	ldrb.w	lr, [lr, #20]
    3878:	f9ba 41c2 	ldrsh.w	r4, [sl, #450]	; 0x1c2
    387c:	f8cd 8004 	str.w	r8, [sp, #4]
    3880:	4434      	add	r4, r6
    3882:	f1ae 0e80 	sub.w	lr, lr, #128	; 0x80
    3886:	f1a9 0980 	sub.w	r9, r9, #128	; 0x80
    388a:	fa1f fe8e 	uxth.w	lr, lr
    388e:	fa1f f989 	uxth.w	r9, r9
    3892:	f64f 7c9c 	movw	ip, #65436	; 0xff9c
    3896:	7d24      	ldrb	r4, [r4, #20]
    3898:	6359      	str	r1, [r3, #52]	; 0x34
    389a:	fa0f f78e 	sxth.w	r7, lr
    389e:	fb19 fc0c 	smulbb	ip, r9, ip
    38a2:	f8cd c00c 	str.w	ip, [sp, #12]
    38a6:	eb07 0c47 	add.w	ip, r7, r7, lsl #1
    38aa:	f8dd 800c 	ldr.w	r8, [sp, #12]
    38ae:	3c10      	subs	r4, #16
    38b0:	eb0c 1c0c 	add.w	ip, ip, ip, lsl #4
    38b4:	b2a4      	uxth	r4, r4
    38b6:	eb07 0ccc 	add.w	ip, r7, ip, lsl #3
    38ba:	f8cd c008 	str.w	ip, [sp, #8]
    38be:	fb14 8800 	smlabb	r8, r4, r0, r8
    38c2:	f64f 7c30 	movw	ip, #65328	; 0xff30
    38c6:	fa0f f989 	sxth.w	r9, r9
    38ca:	fb1e 870c 	smlabb	r7, lr, ip, r8
    38ce:	eb09 19c9 	add.w	r9, r9, r9, lsl #7
    38d2:	f8dd e008 	ldr.w	lr, [sp, #8]
    38d6:	f8dd 8004 	ldr.w	r8, [sp, #4]
    38da:	631a      	str	r2, [r3, #48]	; 0x30
    38dc:	ea4f 0989 	mov.w	r9, r9, lsl #2
    38e0:	fb14 ec00 	smlabb	ip, r4, r0, lr
    38e4:	fb14 9900 	smlabb	r9, r4, r0, r9
    38e8:	f209 194d 	addw	r9, r9, #333	; 0x14d
    38ec:	f207 144d 	addw	r4, r7, #333	; 0x14d
    38f0:	f20c 1c4d 	addw	ip, ip, #333	; 0x14d
    38f4:	fa04 f702 	lsl.w	r7, r4, r2
    38f8:	fa0c fc02 	lsl.w	ip, ip, r2
    38fc:	fa09 f402 	lsl.w	r4, r9, r2
    3900:	f8cb 5034 	str.w	r5, [fp, #52]	; 0x34
    3904:	44b0      	add	r8, r6
    3906:	f8cb c030 	str.w	ip, [fp, #48]	; 0x30
    390a:	6359      	str	r1, [r3, #52]	; 0x34
    390c:	631a      	str	r2, [r3, #48]	; 0x30
    390e:	f8cb 5034 	str.w	r5, [fp, #52]	; 0x34
    3912:	f8cb 7030 	str.w	r7, [fp, #48]	; 0x30
    3916:	6359      	str	r1, [r3, #52]	; 0x34
    3918:	2701      	movs	r7, #1
    391a:	631a      	str	r2, [r3, #48]	; 0x30
    391c:	f8cb 5034 	str.w	r5, [fp, #52]	; 0x34
    3920:	f8cb 4030 	str.w	r4, [fp, #48]	; 0x30
    3924:	240f      	movs	r4, #15
    3926:	f8cb 5034 	str.w	r5, [fp, #52]	; 0x34
    392a:	f9ba c1ca 	ldrsh.w	ip, [sl, #458]	; 0x1ca
    392e:	635c      	str	r4, [r3, #52]	; 0x34
    3930:	631f      	str	r7, [r3, #48]	; 0x30
    3932:	f898 e014 	ldrb.w	lr, [r8, #20]
    3936:	f9ba 41c8 	ldrsh.w	r4, [sl, #456]	; 0x1c8
    393a:	44b4      	add	ip, r6
    393c:	f1ae 0e80 	sub.w	lr, lr, #128	; 0x80
    3940:	4434      	add	r4, r6
    3942:	f89c 8014 	ldrb.w	r8, [ip, #20]
    3946:	7d24      	ldrb	r4, [r4, #20]
    3948:	6359      	str	r1, [r3, #52]	; 0x34
    394a:	fa1f fe8e 	uxth.w	lr, lr
    394e:	fa0f f78e 	sxth.w	r7, lr
    3952:	eb07 0c47 	add.w	ip, r7, r7, lsl #1
    3956:	f1a8 0880 	sub.w	r8, r8, #128	; 0x80
    395a:	eb0c 1c0c 	add.w	ip, ip, ip, lsl #4
    395e:	fa1f f888 	uxth.w	r8, r8
    3962:	f64f 799c 	movw	r9, #65436	; 0xff9c
    3966:	3c10      	subs	r4, #16
    3968:	b2a4      	uxth	r4, r4
    396a:	eb07 07cc 	add.w	r7, r7, ip, lsl #3
    396e:	fa0f fc88 	sxth.w	ip, r8
    3972:	fb18 f809 	smulbb	r8, r8, r9
    3976:	fb14 8800 	smlabb	r8, r4, r0, r8
    397a:	f64f 7930 	movw	r9, #65328	; 0xff30
    397e:	eb0c 1ccc 	add.w	ip, ip, ip, lsl #7
    3982:	fb14 7700 	smlabb	r7, r4, r0, r7
    3986:	fb1e 8e09 	smlabb	lr, lr, r9, r8
    398a:	ea4f 0c8c 	mov.w	ip, ip, lsl #2
    398e:	fb14 cc00 	smlabb	ip, r4, r0, ip
    3992:	f20e 1e4d 	addw	lr, lr, #333	; 0x14d
    3996:	f207 174d 	addw	r7, r7, #333	; 0x14d
    399a:	f9ba 91d2 	ldrsh.w	r9, [sl, #466]	; 0x1d2
    399e:	631a      	str	r2, [r3, #48]	; 0x30
    39a0:	fa0e f402 	lsl.w	r4, lr, r2
    39a4:	4097      	lsls	r7, r2
    39a6:	f20c 184d 	addw	r8, ip, #333	; 0x14d
    39aa:	f8cb 5034 	str.w	r5, [fp, #52]	; 0x34
    39ae:	f9ba e1ce 	ldrsh.w	lr, [sl, #462]	; 0x1ce
    39b2:	f8cb 7030 	str.w	r7, [fp, #48]	; 0x30
    39b6:	fa08 f802 	lsl.w	r8, r8, r2
    39ba:	6359      	str	r1, [r3, #52]	; 0x34
    39bc:	631a      	str	r2, [r3, #48]	; 0x30
    39be:	f8cb 5034 	str.w	r5, [fp, #52]	; 0x34
    39c2:	f8cb 4030 	str.w	r4, [fp, #48]	; 0x30
    39c6:	240f      	movs	r4, #15
    39c8:	f8cd e00c 	str.w	lr, [sp, #12]
    39cc:	eb06 0c09 	add.w	ip, r6, r9
    39d0:	6359      	str	r1, [r3, #52]	; 0x34
    39d2:	631a      	str	r2, [r3, #48]	; 0x30
    39d4:	f8cb 5034 	str.w	r5, [fp, #52]	; 0x34
    39d8:	f8cb 8030 	str.w	r8, [fp, #48]	; 0x30
    39dc:	f8cb 5034 	str.w	r5, [fp, #52]	; 0x34
    39e0:	635c      	str	r4, [r3, #52]	; 0x34
    39e2:	2401      	movs	r4, #1
    39e4:	631c      	str	r4, [r3, #48]	; 0x30
    39e6:	f9ba 71d0 	ldrsh.w	r7, [sl, #464]	; 0x1d0
    39ea:	f89c e014 	ldrb.w	lr, [ip, #20]
    39ee:	9c03      	ldr	r4, [sp, #12]
    39f0:	4437      	add	r7, r6
    39f2:	4434      	add	r4, r6
    39f4:	f1ae 0e80 	sub.w	lr, lr, #128	; 0x80
    39f8:	f897 9014 	ldrb.w	r9, [r7, #20]
    39fc:	f9ba 71d8 	ldrsh.w	r7, [sl, #472]	; 0x1d8
    3a00:	9701      	str	r7, [sp, #4]
    3a02:	fa1f fe8e 	uxth.w	lr, lr
    3a06:	7d24      	ldrb	r4, [r4, #20]
    3a08:	6359      	str	r1, [r3, #52]	; 0x34
    3a0a:	fa0f f78e 	sxth.w	r7, lr
    3a0e:	eb07 0c47 	add.w	ip, r7, r7, lsl #1
    3a12:	f1a9 0980 	sub.w	r9, r9, #128	; 0x80
    3a16:	fa1f f989 	uxth.w	r9, r9
    3a1a:	3c10      	subs	r4, #16
    3a1c:	f64f 789c 	movw	r8, #65436	; 0xff9c
    3a20:	eb0c 1c0c 	add.w	ip, ip, ip, lsl #4
    3a24:	b2a4      	uxth	r4, r4
    3a26:	eb07 0ccc 	add.w	ip, r7, ip, lsl #3
    3a2a:	fb19 f808 	smulbb	r8, r9, r8
    3a2e:	f8cd c008 	str.w	ip, [sp, #8]
    3a32:	fb14 8800 	smlabb	r8, r4, r0, r8
    3a36:	f64f 7c30 	movw	ip, #65328	; 0xff30
    3a3a:	fb1e 870c 	smlabb	r7, lr, ip, r8
    3a3e:	fa0f f989 	sxth.w	r9, r9
    3a42:	f8dd e008 	ldr.w	lr, [sp, #8]
    3a46:	f8dd 8004 	ldr.w	r8, [sp, #4]
    3a4a:	631a      	str	r2, [r3, #48]	; 0x30
    3a4c:	eb09 19c9 	add.w	r9, r9, r9, lsl #7
    3a50:	fb14 ec00 	smlabb	ip, r4, r0, lr
    3a54:	ea4f 0989 	mov.w	r9, r9, lsl #2
    3a58:	fb14 9900 	smlabb	r9, r4, r0, r9
    3a5c:	f20c 1c4d 	addw	ip, ip, #333	; 0x14d
    3a60:	f207 144d 	addw	r4, r7, #333	; 0x14d
    3a64:	4094      	lsls	r4, r2
    3a66:	fa0c fc02 	lsl.w	ip, ip, r2
    3a6a:	f209 194d 	addw	r9, r9, #333	; 0x14d
    3a6e:	f9ba 71d6 	ldrsh.w	r7, [sl, #470]	; 0x1d6
    3a72:	f8cb 5034 	str.w	r5, [fp, #52]	; 0x34
    3a76:	fa09 f902 	lsl.w	r9, r9, r2
    3a7a:	f8cb c030 	str.w	ip, [fp, #48]	; 0x30
    3a7e:	f9ba c1d4 	ldrsh.w	ip, [sl, #468]	; 0x1d4
    3a82:	6359      	str	r1, [r3, #52]	; 0x34
    3a84:	631a      	str	r2, [r3, #48]	; 0x30
    3a86:	f8cb 5034 	str.w	r5, [fp, #52]	; 0x34
    3a8a:	f8cb 4030 	str.w	r4, [fp, #48]	; 0x30
    3a8e:	240f      	movs	r4, #15
    3a90:	6359      	str	r1, [r3, #52]	; 0x34
    3a92:	44b0      	add	r8, r6
    3a94:	631a      	str	r2, [r3, #48]	; 0x30
    3a96:	f8cb 5034 	str.w	r5, [fp, #52]	; 0x34
    3a9a:	f8cb 9030 	str.w	r9, [fp, #48]	; 0x30
    3a9e:	f8cb 5034 	str.w	r5, [fp, #52]	; 0x34
    3aa2:	635c      	str	r4, [r3, #52]	; 0x34
    3aa4:	2401      	movs	r4, #1
    3aa6:	631c      	str	r4, [r3, #48]	; 0x30
    3aa8:	f898 e014 	ldrb.w	lr, [r8, #20]
    3aac:	4437      	add	r7, r6
    3aae:	44b4      	add	ip, r6
    3ab0:	f897 9014 	ldrb.w	r9, [r7, #20]
    3ab4:	f89c 4014 	ldrb.w	r4, [ip, #20]
    3ab8:	f1ae 0e80 	sub.w	lr, lr, #128	; 0x80
    3abc:	fa1f fe8e 	uxth.w	lr, lr
    3ac0:	fa0f f78e 	sxth.w	r7, lr
    3ac4:	f1a9 0980 	sub.w	r9, r9, #128	; 0x80
    3ac8:	fa1f f989 	uxth.w	r9, r9
    3acc:	eb07 0c47 	add.w	ip, r7, r7, lsl #1
    3ad0:	f8cd e008 	str.w	lr, [sp, #8]
    3ad4:	fa0f f889 	sxth.w	r8, r9
    3ad8:	f64f 7e9c 	movw	lr, #65436	; 0xff9c
    3adc:	3c10      	subs	r4, #16
    3ade:	eb0c 1c0c 	add.w	ip, ip, ip, lsl #4
    3ae2:	b2a4      	uxth	r4, r4
    3ae4:	fb19 f90e 	smulbb	r9, r9, lr
    3ae8:	eb07 0ccc 	add.w	ip, r7, ip, lsl #3
    3aec:	eb08 18c8 	add.w	r8, r8, r8, lsl #7
    3af0:	9f02      	ldr	r7, [sp, #8]
    3af2:	6359      	str	r1, [r3, #52]	; 0x34
    3af4:	fb14 9900 	smlabb	r9, r4, r0, r9
    3af8:	f64f 7e30 	movw	lr, #65328	; 0xff30
    3afc:	ea4f 0888 	mov.w	r8, r8, lsl #2
    3b00:	fb17 990e 	smlabb	r9, r7, lr, r9
    3b04:	fb14 8800 	smlabb	r8, r4, r0, r8
    3b08:	fb14 cc00 	smlabb	ip, r4, r0, ip
    3b0c:	f9ba 41dc 	ldrsh.w	r4, [sl, #476]	; 0x1dc
    3b10:	9403      	str	r4, [sp, #12]
    3b12:	f9ba e1de 	ldrsh.w	lr, [sl, #478]	; 0x1de
    3b16:	631a      	str	r2, [r3, #48]	; 0x30
    3b18:	f209 194d 	addw	r9, r9, #333	; 0x14d
    3b1c:	f208 184d 	addw	r8, r8, #333	; 0x14d
    3b20:	f20c 1c4d 	addw	ip, ip, #333	; 0x14d
    3b24:	fa09 f702 	lsl.w	r7, r9, r2
    3b28:	fa08 f402 	lsl.w	r4, r8, r2
    3b2c:	fa0c fc02 	lsl.w	ip, ip, r2
    3b30:	f9ba 81da 	ldrsh.w	r8, [sl, #474]	; 0x1da
    3b34:	f8dd a00c 	ldr.w	sl, [sp, #12]
    3b38:	f8cb 5034 	str.w	r5, [fp, #52]	; 0x34
    3b3c:	44b6      	add	lr, r6
    3b3e:	f8cb c030 	str.w	ip, [fp, #48]	; 0x30
    3b42:	6359      	str	r1, [r3, #52]	; 0x34
    3b44:	631a      	str	r2, [r3, #48]	; 0x30
    3b46:	f8cb 5034 	str.w	r5, [fp, #52]	; 0x34
    3b4a:	f8cb 7030 	str.w	r7, [fp, #48]	; 0x30
    3b4e:	6359      	str	r1, [r3, #52]	; 0x34
    3b50:	270f      	movs	r7, #15
    3b52:	631a      	str	r2, [r3, #48]	; 0x30
    3b54:	f8cb 5034 	str.w	r5, [fp, #52]	; 0x34
    3b58:	f8cb 4030 	str.w	r4, [fp, #48]	; 0x30
    3b5c:	2401      	movs	r4, #1
    3b5e:	44b2      	add	sl, r6
    3b60:	f8cb 5034 	str.w	r5, [fp, #52]	; 0x34
    3b64:	635f      	str	r7, [r3, #52]	; 0x34
    3b66:	631c      	str	r4, [r3, #48]	; 0x30
    3b68:	f89e e014 	ldrb.w	lr, [lr, #20]
    3b6c:	f89a 9014 	ldrb.w	r9, [sl, #20]
    3b70:	44b0      	add	r8, r6
    3b72:	f1ae 0e80 	sub.w	lr, lr, #128	; 0x80
    3b76:	f898 4014 	ldrb.w	r4, [r8, #20]
    3b7a:	6359      	str	r1, [r3, #52]	; 0x34
    3b7c:	fa1f fe8e 	uxth.w	lr, lr
    3b80:	f1a9 0980 	sub.w	r9, r9, #128	; 0x80
    3b84:	fa0f f78e 	sxth.w	r7, lr
    3b88:	fa1f f989 	uxth.w	r9, r9
    3b8c:	fa0f f889 	sxth.w	r8, r9
    3b90:	eb07 0c47 	add.w	ip, r7, r7, lsl #1
    3b94:	3c10      	subs	r4, #16
    3b96:	f64f 7a9c 	movw	sl, #65436	; 0xff9c
    3b9a:	b2a4      	uxth	r4, r4
    3b9c:	fb19 f90a 	smulbb	r9, r9, sl
    3ba0:	eb08 18c8 	add.w	r8, r8, r8, lsl #7
    3ba4:	eb0c 1c0c 	add.w	ip, ip, ip, lsl #4
    3ba8:	fb14 9900 	smlabb	r9, r4, r0, r9
    3bac:	eb07 0ccc 	add.w	ip, r7, ip, lsl #3
    3bb0:	ea4f 0888 	mov.w	r8, r8, lsl #2
    3bb4:	f64f 7730 	movw	r7, #65328	; 0xff30
    3bb8:	fb14 8800 	smlabb	r8, r4, r0, r8
    3bbc:	fb1e 9907 	smlabb	r9, lr, r7, r9
    3bc0:	fb14 c400 	smlabb	r4, r4, r0, ip
    3bc4:	f209 194d 	addw	r9, r9, #333	; 0x14d
    3bc8:	f208 174d 	addw	r7, r8, #333	; 0x14d
    3bcc:	f204 144d 	addw	r4, r4, #333	; 0x14d
    3bd0:	fa09 f002 	lsl.w	r0, r9, r2
    3bd4:	4097      	lsls	r7, r2
    3bd6:	4094      	lsls	r4, r2
    3bd8:	631a      	str	r2, [r3, #48]	; 0x30
    3bda:	f8cb 5034 	str.w	r5, [fp, #52]	; 0x34
    3bde:	f8cb 4030 	str.w	r4, [fp, #48]	; 0x30
    3be2:	6359      	str	r1, [r3, #52]	; 0x34
    3be4:	631a      	str	r2, [r3, #48]	; 0x30
    3be6:	f8cb 5034 	str.w	r5, [fp, #52]	; 0x34
    3bea:	f8cb 0030 	str.w	r0, [fp, #48]	; 0x30
    3bee:	6359      	str	r1, [r3, #52]	; 0x34
    3bf0:	631a      	str	r2, [r3, #48]	; 0x30
    3bf2:	f8cb 5034 	str.w	r5, [fp, #52]	; 0x34
    3bf6:	f8cb 7030 	str.w	r7, [fp, #48]	; 0x30
    3bfa:	f8cb 5034 	str.w	r5, [fp, #52]	; 0x34
    3bfe:	f8dd 8010 	ldr.w	r8, [sp, #16]
    3c02:	f098 0801 	eors.w	r8, r8, #1
    3c06:	f8cd 8010 	str.w	r8, [sp, #16]
    3c0a:	f47c ab01 	bne.w	210 <main+0x210>
    3c0e:	4c07      	ldr	r4, [pc, #28]	; (3c2c <main+0x3c2c>)
    3c10:	f04f 7280 	mov.w	r2, #16777216	; 0x1000000
    3c14:	6362      	str	r2, [r4, #52]	; 0x34
    3c16:	f7fc baff 	b.w	218 <main+0x218>
    3c1a:	3a01      	subs	r2, #1
    3c1c:	ea6f 52c2 	mvn.w	r2, r2, lsl #23
    3c20:	ea6f 52d2 	mvn.w	r2, r2, lsr #23
    3c24:	3201      	adds	r2, #1
    3c26:	f7fc baff 	b.w	228 <main+0x228>
    3c2a:	bf00      	nop
    3c2c:	400e1400 	.word	0x400e1400

Disassembly of section .text.TC0_Handler:

00000000 <TC0_Handler>:
   0:	4a0b      	ldr	r2, [pc, #44]	; (30 <TC0_Handler+0x30>)
   2:	490c      	ldr	r1, [pc, #48]	; (34 <TC0_Handler+0x34>)
   4:	7813      	ldrb	r3, [r2, #0]
   6:	6809      	ldr	r1, [r1, #0]
   8:	f1d3 0301 	rsbs	r3, r3, #1
   c:	bf38      	it	cc
   e:	2300      	movcc	r3, #0
  10:	7013      	strb	r3, [r2, #0]
  12:	6a0a      	ldr	r2, [r1, #32]
  14:	b12b      	cbz	r3, 22 <TC0_Handler+0x22>
  16:	4b08      	ldr	r3, [pc, #32]	; (38 <TC0_Handler+0x38>)
  18:	4a08      	ldr	r2, [pc, #32]	; (3c <TC0_Handler+0x3c>)
  1a:	681b      	ldr	r3, [r3, #0]
  1c:	6812      	ldr	r2, [r2, #0]
  1e:	631a      	str	r2, [r3, #48]	; 0x30
  20:	4770      	bx	lr
  22:	4b05      	ldr	r3, [pc, #20]	; (38 <TC0_Handler+0x38>)
  24:	4a05      	ldr	r2, [pc, #20]	; (3c <TC0_Handler+0x3c>)
  26:	681b      	ldr	r3, [r3, #0]
  28:	6812      	ldr	r2, [r2, #0]
  2a:	635a      	str	r2, [r3, #52]	; 0x34
  2c:	4770      	bx	lr
  2e:	bf00      	nop
	...

Disassembly of section .text.UART0_Handler:

00000000 <UART0_Handler>:
   0:	4a0b      	ldr	r2, [pc, #44]	; (30 <UART0_Handler+0x30>)
   2:	6953      	ldr	r3, [r2, #20]
   4:	04d9      	lsls	r1, r3, #19
   6:	b430      	push	{r4, r5}
   8:	d510      	bpl.n	2c <UART0_Handler+0x2c>
   a:	490a      	ldr	r1, [pc, #40]	; (34 <UART0_Handler+0x34>)
   c:	1c4d      	adds	r5, r1, #1
   e:	f105 04c7 	add.w	r4, r5, #199	; 0xc7
  12:	4610      	mov	r0, r2
  14:	6953      	ldr	r3, [r2, #20]
  16:	079b      	lsls	r3, r3, #30
  18:	d5fc      	bpl.n	14 <UART0_Handler+0x14>
  1a:	f811 3f01 	ldrb.w	r3, [r1, #1]!
  1e:	61c3      	str	r3, [r0, #28]
  20:	42a1      	cmp	r1, r4
  22:	d1f7      	bne.n	14 <UART0_Handler+0x14>
  24:	4b04      	ldr	r3, [pc, #16]	; (38 <UART0_Handler+0x38>)
  26:	22c8      	movs	r2, #200	; 0xc8
  28:	601d      	str	r5, [r3, #0]
  2a:	605a      	str	r2, [r3, #4]
  2c:	bc30      	pop	{r4, r5}
  2e:	4770      	bx	lr
  30:	400e0600 	.word	0x400e0600
  34:	ffffffff 	.word	0xffffffff
  38:	400e0700 	.word	0x400e0700

Disassembly of section .text.USART0_Handler:

00000000 <USART0_Handler>:
   0:	4b04      	ldr	r3, [pc, #16]	; (14 <USART0_Handler+0x14>)
   2:	695b      	ldr	r3, [r3, #20]
   4:	051b      	lsls	r3, r3, #20
   6:	d504      	bpl.n	12 <USART0_Handler+0x12>
   8:	4b03      	ldr	r3, [pc, #12]	; (18 <USART0_Handler+0x18>)
   a:	4a04      	ldr	r2, [pc, #16]	; (1c <USART0_Handler+0x1c>)
   c:	609a      	str	r2, [r3, #8]
   e:	2214      	movs	r2, #20
  10:	60da      	str	r2, [r3, #12]
  12:	4770      	bx	lr
  14:	400a0000 	.word	0x400a0000
  18:	400a0100 	.word	0x400a0100
  1c:	00000000 	.word	0x00000000
